
 Start         Length     Name                   Class
 0002:00000000 000011742H .text                  CODE
 0003:00000000 00000150EH .reloc                 DATA


  Address         Publics by Value

 0001:00000168       dword_10001168
 0001:0000016C       dword_1000116C
 0001:00000170       dword_10001170
 0001:00000180       dword_10001180
 0001:00000184       dword_10001184
 0001:00000188       dword_10001188
 0001:0000018C       dword_1000118C
 0001:00000190       dword_10001190
 0001:000001A0       off_100011A0
 0001:000001A8       a_?avlogic_erro
 0001:000001C0       off_100011C0
 0001:000001C8       a_?avexception@
 0001:000001DC       off_100011DC
 0001:000001E4       a_?avlength_err
 0001:000001FC       off_100011FC
 0001:00000204       a_?avout_of_ran
 0001:00000220       off_10001220
 0001:00000228       a_?avbad_alloc@
 0001:0000023C       off_1000123C
 0001:00000244       a_?avtype_info@
 0001:00000254       ___security_cookie
 0001:00000258       dword_10001258
 0001:00000260       dword_10001260
 0001:000003DE       aAbcdefghijklmn
 0001:00000480       byte_10001480
 0001:00000588       byte_10001588
 0001:000005E9       aAbcdefghijkl_0
 0001:00000688       lpAddend
 0001:0000068C       byte_1000168C
 0001:00000690       dword_10001690
 0001:00000694       dword_10001694
 0001:000006A0       dword_100016A0
 0001:00000780       dword_10001780
 0001:00000784       dword_10001784
 0001:00000788       off_10001788
 0001:000008F0       dword_100018F0
 0001:000009C8       off_100019C8
 0001:000009CC       off_100019CC
 0001:000009D4       dword_100019D4
 0001:000009D8       dwTlsIndex
 0001:000009E0       dword_100019E0
 0001:000009E4       dword_100019E4
 0001:00000B48       dword_10001B48
 0001:00000BA0       lpCriticalSection
 0001:00000BA4       dword_10001BA4
 0001:00000CC0       dword_10001CC0
 0001:00000CC4       dword_10001CC4
 0001:00000CC8       off_10001CC8
 0001:00000CCC       off_10001CCC
 0001:00000CD0       off_10001CD0
 0001:00000CD4       off_10001CD4
 0001:00000CD8       off_10001CD8
 0001:00000CDC       off_10001CDC
 0001:00000CE0       off_10001CE0
 0001:00000CE4       off_10001CE4
 0001:00000CE8       off_10001CE8
 0001:00000CEC       off_10001CEC
 0001:00000CF8       off_10001CF8
 0001:00000CFC       off_10001CFC
 0001:00000D00       off_10001D00
 0001:00000D04       off_10001D04
 0001:00000D08       off_10001D08
 0001:00000D0C       off_10001D0C
 0001:00000D10       off_10001D10
 0001:00000D14       off_10001D14
 0001:00000D30       off_10001D30
 0001:00000D60       byte_10001D60
 0001:00000D70       dword_10001D70
 0001:00000D80       aAeiou_0
 0001:00000D88       dword_10001D88
 0001:00000D8C       dword_10001D8C
 0001:00000D94       off_10001D94
 0001:00000DA0       off_10001DA0
 0001:00000DAC       off_10001DAC
 0001:00000DB8       off_10001DB8
 0001:00000DC0       dword_10001DC0
 0001:00000DD0       dword_10001DD0
 0001:00000DD8       off_10001DD8
 0001:00000DE0       aUnknownExcepti
 0001:00000DF8       off_10001DF8
 0001:00000DFC       dword_10001DFC
 0001:00000E1C       ExceptionInfo
 0001:00000E24       aHhMmSs
 0001:00000E38       aDdddMmmmDdYy_0
 0001:00000E60       aMmDdYy
 0001:00000E74       aPm
 0001:00000E7C       aAm
 0001:00000E84       aDecember_0
 0001:00000E98       aNovember_0
 0001:00000EAC       aOctober_0
 0001:00000EBC       aSeptember
 0001:00000ED0       aAugust_0
 0001:00000EE0       aJuly_0
 0001:00000EEC       aJune_0
 0001:00000EF8       aApril_0
 0001:00000F04       aMarch_0
 0001:00000F10       aFebruary_0
 0001:00000F24       aJanuary_0
 0001:00000F34       aDec
 0001:00000F3C       aNov
 0001:00000F44       aOct
 0001:00000F4C       aSep
 0001:00000F54       aAug
 0001:00000F5C       aJul
 0001:00000F64       aJun
 0001:00000F6C       aMay
 0001:00000F74       aApr
 0001:00000F7C       aMar
 0001:00000F84       aFeb
 0001:00000F8C       aJan
 0001:00000F94       aSaturday
 0001:00000FA8       aFriday_0
 0001:00000FB8       aThursday_0
 0001:00000FCC       aWednesday_0
 0001:00000FE0       aTuesday_0
 0001:00000FF0       aMonday_0
 0001:00001000       aSunday
 0001:00001010       aSat
 0001:00001018       aFri
 0001:00001020       aThu
 0001:00001028       aWed
 0001:00001030       aTue
 0001:00001038       aMon
 0001:00001040       aSun
 0001:00001048       aHhMmSs_0
 0001:00001054       aDdddMmmmDdYyyy
 0001:00001068       aMmDdYy_0
 0001:00001074       aPm_0
 0001:00001078       aAm_0
 0001:0000107C       aDecember
 0001:00001088       aNovember
 0001:00001094       aOctober
 0001:0000109C       aSeptember_0
 0001:000010A8       aAugust
 0001:000010B0       aJuly
 0001:000010B8       aJune
 0001:000010C0       aApril
 0001:000010C8       aMarch
 0001:000010D0       aFebruary
 0001:000010DC       aJanuary
 0001:000010E4       aDec_0
 0001:000010E8       aNov_0
 0001:000010EC       aOct_0
 0001:000010F0       aSep_0
 0001:000010F4       aAug_0
 0001:000010F8       aJul_0
 0001:000010FC       aJun_0
 0001:00001100       aMay_0
 0001:00001104       aApr_0
 0001:00001108       aMar_0
 0001:0000110C       aFeb_0
 0001:00001110       aJan_0
 0001:00001114       aSaturday_0
 0001:00001120       aFriday
 0001:00001128       aThursday
 0001:00001134       aWednesday
 0001:00001140       aTuesday
 0001:00001148       aMonday
 0001:00001150       aSunday_0
 0001:00001158       aSat_0
 0001:0000115C       aFri_0
 0001:00001160       aThu_0
 0001:00001164       aWed_0
 0001:00001168       aTue_0
 0001:0000116C       aMon_0
 0001:00001170       aSun_0
 0001:00001174       aKernel32_dll_0
 0001:00001190       aFlsfree
 0001:00001198       aFlssetvalue
 0001:000011A4       aFlsgetvalue
 0001:000011B0       aFlsalloc
 0001:000011C0       dword_100021C0
 0001:00001244       aCorexitprocess
 0001:00001254       aMscoree_dll
 0001:00001270       dword_10002270
 0001:00001300       dword_10002300
 0001:00001304       dword_10002304
 0001:0000130C       dword_1000230C
 0001:00001410       asc_10002410
 0001:00001612       word_10002612
 0001:00001614       aHH
 0001:00001898       dword_10002898
 0001:00001A18       dword_10002A18
 0001:00001B38       asc_10002B38
 0001:00001B40       aTlossError
 0001:00001B5C       aSingError
 0001:00001B78       aDomainError
 0001:00001B98       aR6033AttemptTo
 0001:00001D88       aR6032NotEnough
 0001:00001DF0       aR6031AttemptTo
 0001:00001EB8       aR6030CrtNotIni
 0001:00001EF8       aR6028UnableToI
 0001:00001F48       aR6027NotEnough
 0001:00001FB8       aR6026NotEnough
 0001:00002028       aR6025PureVirtu
 0001:00002078       aR6024NotEnough
 0001:000020E8       aR6019UnableToO
 0001:00002140       aR6018Unexpecte
 0001:00002188       aR6017Unexpecte
 0001:000021E8       aR6016NotEnough
 0001:00002240       aR6010AbortHasB
 0001:00002288       aR6009NotEnough
 0001:000022E0       aR6008NotEnough
 0001:00002338       aR6002FloatingP
 0001:00002398       dword_10003398
 0001:0000239C       off_1000339C
 0001:00002448       aMicrosoftVisua
 0001:00002494       Src
 0001:0000249C       a___
 0001:000024A4       aProgramNameUnk
 0001:000024D4       aRuntimeErrorPr
 0001:00002508       aCompleteObject
 0001:00002524       aClassHierarchy
 0001:00002544       aBaseClassArray
 0001:00002558       aBaseClassDescr
 0001:00002574       aTypeDescriptor
 0001:00002588       aLocalStaticThr
 0001:000025A4       aManagedVectorC
 0001:000025D0       aVectorVbaseCop
 0001:000025FC       aVectorCopyCons
 0001:00002620       aDynamicAtexitD
 0001:00002644       aDynamicInitial
 0001:00002660       aEhVectorVbaseC
 0001:0000268C       aEhVectorCopyCo
 0001:000026B4       aManagedVectorD
 0001:000026DC       aManagedVecto_0
 0001:00002704       aPlacementDelet
 0001:00002724       aPlacementDel_0
 0001:00002740       aOmniCallsig
 0001:00002750       aDelete
 0001:0000275C       aNew
 0001:00002764       aLocalVftableCo
 0001:00002788       aLocalVftable
 0001:00002798       aRtti
 0001:000027A0       aEh
 0001:000027A4       aUdtReturning
 0001:000027B4       aCopyConstructo
 0001:000027D0       aEhVectorVbas_0
 0001:000027F8       aEhVectorDestru
 0001:00002818       aEhVectorConstr
 0001:0000283C       aVirtualDisplac
 0001:00002858       aVectorVbaseCon
 0001:0000287C       aVectorDestruct
 0001:0000289C       aVectorConstruc
 0001:000028BC       aScalarDeleting
 0001:000028DC       aDefaultConstru
 0001:000028FC       aVectorDeleting
 0001:0000291C       aVbaseDestructo
 0001:00002930       aString
 0001:0000293C       aLocalStaticGua
 0001:00002954       aTypeof
 0001:00002960       aVcall
 0001:00002968       aVbtable
 0001:00002974       aVftable
 0001:00002980       asc_10003980
 0001:00002984       asc_10003984
 0001:00002988       asc_10003988
 0001:0000298C       asc_1000398C
 0001:00002990       asc_10003990
 0001:00002994       asc_10003994
 0001:00002998       asc_10003998
 0001:0000299C       asc_1000399C
 0001:000029A0       asc_100039A0
 0001:000029A4       asc_100039A4
 0001:000029A8       asc_100039A8
 0001:000029AC       asc_100039AC
 0001:000029B0       asc_100039B0
 0001:000029B4       asc_100039B4
 0001:000029B8       asc_100039B8
 0001:000029BC       asc_100039BC
 0001:000029C0       asc_100039C0
 0001:000029C4       asc_100039C4
 0001:000029C8       asc_100039C8
 0001:000029CC       asc_100039CC
 0001:000029D0       asc_100039D0
 0001:000029D4       asc_100039D4
 0001:000029D8       asc_100039D8
 0001:000029DC       asc_100039DC
 0001:000029E0       asc_100039E0
 0001:000029E4       asc_100039E4
 0001:000029E8       asc_100039E8
 0001:000029EC       asc_100039EC
 0001:000029F0       asc_100039F0
 0001:000029F4       asc_100039F4
 0001:000029F8       asc_100039F8
 0001:000029FC       aOperator
 0001:00002A08       asc_10003A08
 0001:00002A0C       asc_10003A0C
 0001:00002A10       asc_10003A10
 0001:00002A14       asc_10003A14
 0001:00002A18       asc_10003A18
 0001:00002A1C       asc_10003A1C
 0001:00002A20       aDelete_0
 0001:00002A28       aNew_0
 0001:00002A30       a__unaligned
 0001:00002A3C       a__restrict
 0001:00002A48       a__ptr64
 0001:00002A50       a__eabi
 0001:00002A58       a__clrcall
 0001:00002A64       a__fastcall
 0001:00002A70       a__thiscall
 0001:00002A7C       a__stdcall
 0001:00002A88       a__pascal
 0001:00002A94       a__cdecl
 0001:00002A9C       a__based
 0001:00002C2C       aGetprocesswind
 0001:00002C44       aGetuserobjecti
 0001:00002C60       aGetlastactivep
 0001:00002C74       aGetactivewindo
 0001:00002C84       aMessageboxw
 0001:00002C90       LibFileName
 0001:00002CA8       aUnknownExcep_0
 0001:00002CBC       aUnknown_0x08x
 0001:00002CCC       asc_10003CCC
 0001:00002CD0       aSoftwareMicros
 0001:00002D2C       aServicedll
 0001:00002D44       aParameters
 0001:00002D60       aSystemCurrentc
 0001:00002DA4       dword_10003DA4
 0001:00002DA8       aAeiou
 0001:00002DB0       aBl
 0001:00002DB4       aBr
 0001:00002DB8       aCl
 0001:00002DBC       aCr
 0001:00002DC0       aDr
 0001:00002DC4       aFl
 0001:00002DC8       aFr
 0001:00002DCC       aGl
 0001:00002DD0       aGr
 0001:00002DD4       aPl
 0001:00002DD8       aPr
 0001:00002DDC       aSk
 0001:00002DE0       aSl
 0001:00002DE4       aSm
 0001:00002DE8       aSn
 0001:00002DEC       aSp
 0001:00002DF0       aSt
 0001:00002DF4       aSw
 0001:00002DF8       aTr
 0001:00002DFC       aCh
 0001:00002E00       aSh
 0001:00002E04       aQxcsj
 0001:00002E0C       aCt
 0001:00002E10       aFt
 0001:00002E14       aMp
 0001:00002E18       aNd
 0001:00002E1C       aNg
 0001:00002E20       aNk
 0001:00002E24       aNt
 0001:00002E28       aPt
 0001:00002E2C       aSs
 0001:00002E30       aRu
 0001:00002E34       aUa
 0001:00002E38       aPw
 0001:00002E3C       aRocks
 0001:00002E44       aLink
 0001:00002E4C       aSpace
 0001:00002E54       aIn
 0001:00002E58       ProcName
 0001:00002E68       ModuleName
 0001:00002E78       asc_10003E78
 0001:00002E80       aContentLength
 0001:00002E94       aHttp1_1
 0001:00002EA0       aHttp1_0
 0001:00002EAC       aCookieId
 0001:00002EB8       asc_10003EB8
 0001:00002EBC       aToolbarqueries
 0001:00002ED8       aSearch?sourcei
 0001:00002F24       aQInfoGoogle_co
 0001:00002F38       aUserAgentOpera
 0001:00003080       aGet
 0001:00003088       aHttp
 0001:00003090       aSSSS
 0001:0000309C       aHttp1_1_0
 0001:000030A8       aS
 0001:000030B0       aStringTooLong
 0001:000030C0       aInvalidStringP
 0001:000030D8       aDequeTTooLong
 0001:000030EC       aVectorTTooLong
 0001:00003100       aMapSetTTooLong
 0001:00003114       off_10004114
 0001:00003120       off_10004120
 0001:0000312C       off_1000412C
 0001:00003138       off_10004138
 0001:00003144       off_10004144
 0001:00003150       off_10004150
 0001:0000315C       off_1000415C
 0001:00003168       off_10004168
 0001:00003180       off_10004180
 0001:00003198       off_10004198
 0001:000031A4       off_100041A4
 0001:000031B0       off_100041B0
 0001:000031B4       off_100041B4
 0001:000031B8       off_100041B8
 0001:000031BC       off_100041BC
 0001:000031C0       off_100041C0
 0001:000031C4       off_100041C4
 0001:000031C8       __load_config_used
 0001:00003210       dword_10004210
 0001:00003224       dword_10004224
 0001:00003234       off_10004234
 0001:00003240       off_10004240
 0001:0000325C       off_1000425C
 0001:00003278       dword_10004278
 0001:00003288       off_10004288
 0001:00003290       dword_10004290
 0001:000032A4       dword_100042A4
 0001:000032B4       off_100042B4
 0001:000032C4       off_100042C4
 0001:000032E0       dword_100042E0
 0001:000032F4       dword_100042F4
 0001:00003304       off_10004304
 0001:00003314       off_10004314
 0001:00003330       dword_10004330
 0001:00003344       dword_10004344
 0001:00003354       off_10004354
 0001:00003360       off_10004360
 0001:0000337C       dword_1000437C
 0001:00003390       dword_10004390
 0001:000033A4       dword_100043A4
 0001:000033B4       off_100043B4
 0001:000033BC       off_100043BC
 0001:000033E0       ___safe_se_handler_table
 0001:000033F0       dword_100043F0
 0001:000033F8       dword_100043F8
 0001:00003400       unknown_libname_1
 0001:0000340C       locret_1000440C
 0001:0000340D       sub_1000440D
 0001:0000341D       loc_1000441D
 0001:0000342F       locret_1000442F
 0001:00003430       sub_10004430
 0001:0000343D       sub_1000443D
 0001:00003456       loc_10004456
 0001:0000345D       sub_1000445D
 0001:0000346D       sub_1000446D
 0001:000034B4       sub_100044B4
 0001:000034EB       x_memmove
 0001:00003530       loc_10004530
 0001:00003534       aToWstr
 0001:00003594       loc_10004594
 0001:00003596       loc_10004596
 0001:0000359B       sub_1000459B
 0001:000035F1       loc_100045F1
 0001:000035F3       loc_100045F3
 0001:000035F8       sub_100045F8
 0001:00003663       loc_10004663
 0001:00003667       loc_10004667
 0001:0000367F       loc_1000467F
 0001:00003684       loc_10004684
 0001:000036CC       loc_100046CC
 0001:000036CE       loc_100046CE
 0001:000036E2       loc_100046E2
 0001:000036E4       loc_100046E4
 0001:000036F4       loc_100046F4
 0001:00003707       loc_10004707
 0001:0000370C       loc_1000470C
 0001:0000370E       loc_1000470E
 0001:00003712       sub_10004712
 0001:00003715       loc_10004715
 0001:00003722       loc_10004722
 0001:0000372F       loc_1000472F
 0001:00003744       sub_10004744
 0001:000037CF       loc_100047CF
 0001:000037F2       loc_100047F2
 0001:00003826       loc_10004826
 0001:00003842       loc_10004842
 0001:0000384D       loc_1000484D
 0001:00003850       loc_10004850
 0001:0000386D       loc_1000486D
 0001:00003874       loc_10004874
 0001:00003884       loc_10004884
 0001:00003893       loc_10004893
 0001:000038A2       loc_100048A2
 0001:000038A7       loc_100048A7
 0001:000038B2       loc_100048B2
 0001:000038C1       loc_100048C1
 0001:000038D0       loc_100048D0
 0001:000038D5       loc_100048D5
 0001:000038D7       loc_100048D7
 0001:000038DC       HandlerProc
 0001:000038F4       loc_100048F4
 0001:000038F8       loc_100048F8
 0001:000038FC       loc_100048FC
 0001:000038FE       loc_100048FE
 0001:00003906       loc_10004906
 0001:0000390E       sub_1000490E
 0001:00003941       loc_10004941
 0001:0000394E       loc_1000494E
 0001:00003978       loc_10004978
 0001:00003990       loc_10004990
 0001:0000399C       loc_1000499C
 0001:000039A8       loc_100049A8
 0001:000039AB       loc_100049AB
 0001:000039D0       loc_100049D0
 0001:000039D2       loc_100049D2
 0001:000039E2       off_100049E2
 0001:000039E6       byte_100049E6
 0001:000039EE       sub_100049EE
 0001:00003A34       sub_10004A34
 0001:00003A57       sub_10004A57
 0001:00003A9B       sub_10004A9B
 0001:00003AB3       loc_10004AB3
 0001:00003ABA       sub_10004ABA
 0001:00003ABD       sub_10004ABD
 0001:00003AC2       loc_10004AC2
 0001:00003AC6       sub_10004AC6
 0001:00003B0E       loc_10004B0E
 0001:00003B50       loc_10004B50
 0001:00003C7A       loc_10004C7A
 0001:00003CB7       loc_10004CB7
 0001:00003CB9       loc_10004CB9
 0001:00003CCB       loc_10004CCB
 0001:00003CDC       sub_10004CDC
 0001:00003D0A       loc_10004D0A
 0001:00003E17       loc_10004E17
 0001:00003E28       sub_10004E28
 0001:00003E50       loc_10004E50
 0001:00003E59       sub_10004E59
 0001:00003E72       loc_10004E72
 0001:00003E79       sub_10004E79
 0001:00003EAD       loc_10004EAD
 0001:00003EE6       loc_10004EE6
 0001:00003EF9       loc_10004EF9
 0001:00003F05       loc_10004F05
 0001:00003F0E       loc_10004F0E
 0001:00003F16       loc_10004F16
 0001:00003F3E       loc_10004F3E
 0001:00003F4B       sub_10004F4B
 0001:00003F69       loc_10004F69
 0001:00003F77       loc_10004F77
 0001:00003F81       loc_10004F81
 0001:00003F83       loc_10004F83
 0001:00003FA0       loc_10004FA0
 0001:00003FB2       loc_10004FB2
 0001:00003FBF       loc_10004FBF
 0001:00003FDA       loc_10004FDA
 0001:00003FE8       loc_10004FE8
 0001:00003FEA       loc_10004FEA
 0001:00003FEE       loc_10004FEE
 0001:00003FFE       loc_10004FFE
 0001:0000400E       loc_1000500E
 0001:00004012       sub_10005012
 0001:00004036       loc_10005036
 0001:00004077       loc_10005077
 0001:00004084       sub_10005084
 0001:000040B7       loc_100050B7
 0001:000040BD       loc_100050BD
 0001:000040D8       loc_100050D8
 0001:000040DE       loc_100050DE
 0001:000040F9       loc_100050F9
 0001:000040FF       loc_100050FF
 0001:0000410B       loc_1000510B
 0001:00004142       loc_10005142
 0001:0000414F       loc_1000514F
 0001:00004155       loc_10005155
 0001:00004157       loc_10005157
 0001:00004166       loc_10005166
 0001:00004171       loc_10005171
 0001:00004173       loc_10005173
 0001:000044D1       loc_100054D1
 0001:000044D7       loc_100054D7
 0001:000044EE       loc_100054EE
 0001:0000451A       loc_1000551A
 0001:00004555       loc_10005555
 0001:00004564       sub_10005564
 0001:00004580       loc_10005580
 0001:0000458F       loc_1000558F
 0001:000045A8       loc_100055A8
 0001:000045C0       loc_100055C0
 0001:000045D9       loc_100055D9
 0001:000045E8       loc_100055E8
 0001:000045EB       sub_100055EB
 0001:00004643       loc_10005643
 0001:0000465E       loc_1000565E
 0001:00004660       loc_10005660
 0001:00004670       loc_10005670
 0001:00004672       loc_10005672
 0001:00004676       loc_10005676
 0001:00004698       sub_10005698
 0001:000046E8       loc_100056E8
 0001:000046F0       loc_100056F0
 0001:00004702       loc_10005702
 0001:00004705       loc_10005705
 0001:0000471A       loc_1000571A
 0001:0000474A       loc_1000574A
 0001:0000477E       loc_1000577E
 0001:000047CE       loc_100057CE
 0001:000047D4       loc_100057D4
 0001:000047EF       loc_100057EF
 0001:00004808       sub_10005808
 0001:0000480C       sub_1000580C
 0001:00004908       loc_10005908
 0001:0000490A       loc_1000590A
 0001:00004987       loc_10005987
 0001:0000498F       loc_1000598F
 0001:000049AF       sub_100059AF
 0001:000049CF       DGA
 0001:00004A3B       loc_10005A3B
 0001:00004A43       loc_10005A43
 0001:00004AA3       NetWorkPrepare
 0001:00004AE6       loc_10005AE6
 0001:00004B31       loc_10005B31
 0001:00004B62       loc_10005B62
 0001:00004B64       loc_10005B64
 0001:00004B6A       loc_10005B6A
 0001:00004B94       loc_10005B94
 0001:00004B9F       loc_10005B9F
 0001:00004BB4       loc_10005BB4
 0001:00004BDA       loc_10005BDA
 0001:00004BE9       sub_10005BE9
 0001:00004C0B       loc_10005C0B
 0001:00004C13       loc_10005C13
 0001:00004C17       nullsub_1
 0001:00004C1A       sub_10005C1A
 0001:00004C32       loc_10005C32
 0001:00004C39       sub_10005C39
 0001:00004C4B       loc_10005C4B
 0001:00004C5E       loc_10005C5E
 0001:00004C68       loc_10005C68
 0001:00004C6C       loc_10005C6C
 0001:00004C72       sub_10005C72
 0001:00004C7F       loc_10005C7F
 0001:00004C8C       loc_10005C8C
 0001:00004C96       loc_10005C96
 0001:00004C98       sub_10005C98
 0001:00004CCB       loc_10005CCB
 0001:00004CFA       loc_10005CFA
 0001:00004D0A       loc_10005D0A
 0001:00004D37       loc_10005D37
 0001:00004D44       loc_10005D44
 0001:00004D58       loc_10005D58
 0001:00004D78       loc_10005D78
 0001:00004D93       sub_10005D93
 0001:00004DA2       loc_10005DA2
 0001:00004DA7       loc_10005DA7
 0001:00004DB6       loc_10005DB6
 0001:00004DB8       loc_10005DB8
 0001:00004DCB       sub_10005DCB
 0001:00004DDE       loc_10005DDE
 0001:00004DFE       loc_10005DFE
 0001:00004E00       loc_10005E00
 0001:00004E04       sub_10005E04
 0001:00004E22       loc_10005E22
 0001:00004E26       loc_10005E26
 0001:00004E4C       loc_10005E4C
 0001:00004E6C       loc_10005E6C
 0001:00004E70       sub_10005E70
 0001:00004E80       loc_10005E80
 0001:00004E9F       loc_10005E9F
 0001:00004ECB       loc_10005ECB
 0001:00004ED6       sub_10005ED6
 0001:00004F2D       loc_10005F2D
 0001:00004F30       loc_10005F30
 0001:00004F3C       loc_10005F3C
 0001:00004F48       loc_10005F48
 0001:00004F4A       loc_10005F4A
 0001:00004F59       loc_10005F59
 0001:00004F79       sub_10005F79
 0001:00004F9C       loc_10005F9C
 0001:00004FBB       sub_10005FBB
 0001:00004FFE       sub_10005FFE
 0001:00005002       sub_10006002
 0001:000050C5       sub_100060C5
 0001:00005158       sub_10006158
 0001:00005166       loc_10006166
 0001:00005173       loc_10006173
 0001:0000519C       loc_1000619C
 0001:000051B0       loc_100061B0
 0001:000051B5       sub_100061B5
 0001:00005211       sub_10006211
 0001:0000521F       loc_1000621F
 0001:0000522C       loc_1000622C
 0001:00005255       loc_10006255
 0001:00005269       loc_10006269
 0001:0000526E       sub_1000626E
 0001:0000528E       sub_1000628E
 0001:000052B2       loc_100062B2
 0001:000052E8       loc_100062E8
 0001:00005321       loc_10006321
 0001:0000535D       loc_1000635D
 0001:000053F5       loc_100063F5
 0001:000053FC       loc_100063FC
 0001:0000542C       loc_1000642C
 0001:00005433       loc_10006433
 0001:0000545D       loc_1000645D
 0001:0000545F       loc_1000645F
 0001:00005489       loc_10006489
 0001:0000548B       loc_1000648B
 0001:000054F3       sub_100064F3
 0001:00005510       loc_10006510
 0001:00005544       loc_10006544
 0001:0000560E       loc_1000660E
 0001:00005675       loc_10006675
 0001:000056B3       loc_100066B3
 0001:000057BE       loc_100067BE
 0001:000057E5       sub_100067E5
 0001:00006226       loc_10007226
 0001:000063EF       loc_100073EF
 0001:00006546       sub_10007546
 0001:00007004       loc_10008004
 0001:000071D6       loc_100081D6
 0001:0000734E       sub_1000834E
 0001:00007366       loc_10008366
 0001:00007371       loc_10008371
 0001:000073A4       loc_100083A4
 0001:000073B6       loc_100083B6
 0001:000073CE       loc_100083CE
 0001:00007409       loc_10008409
 0001:0000744D       loc_1000844D
 0001:0000745B       loc_1000845B
 0001:00007469       loc_10008469
 0001:0000746C       loc_1000846C
 0001:00007477       loc_10008477
 0001:0000748A       loc_1000848A
 0001:0000748B       loc_1000848B
 0001:0000748F       loc_1000848F
 0001:0000749B       loc_1000849B
 0001:000074AB       loc_100084AB
 0001:000074C4       loc_100084C4
 0001:000074D5       loc_100084D5
 0001:000074F3       loc_100084F3
 0001:00007503       loc_10008503
 0001:00007516       loc_10008516
 0001:00007569       loc_10008569
 0001:0000758A       loc_1000858A
 0001:000075B2       loc_100085B2
 0001:000075C5       loc_100085C5
 0001:000075D3       loc_100085D3
 0001:000075E1       loc_100085E1
 0001:000075E6       loc_100085E6
 0001:000075F5       loc_100085F5
 0001:00007604       loc_10008604
 0001:0000760D       loc_1000860D
 0001:00007620       loc_10008620
 0001:0000762E       loc_1000862E
 0001:00007636       loc_10008636
 0001:00007649       loc_10008649
 0001:00007657       loc_10008657
 0001:00007665       loc_10008665
 0001:0000767D       sub_1000867D
 0001:000076BA       loc_100086BA
 0001:000076D4       loc_100086D4
 0001:000076D6       loc_100086D6
 0001:000076DD       loc_100086DD
 0001:00007703       loc_10008703
 0001:0000771E       loc_1000871E
 0001:00007720       loc_10008720
 0001:00007725       loc_10008725
 0001:0000772A       sub_1000872A
 0001:0000776E       loc_1000876E
 0001:00007780       loc_10008780
 0001:000077A7       loc_100087A7
 0001:00007802       loc_10008802
 0001:00007806       loc_10008806
 0001:00007830       loc_10008830
 0001:0000783A       sub_1000883A
 0001:00007859       loc_10008859
 0001:00007860       loc_10008860
 0001:00007880       loc_10008880
 0001:00007883       loc_10008883
 0001:00007888       loc_10008888
 0001:00007890       loc_10008890
 0001:000078AC       loc_100088AC
 0001:000078B5       loc_100088B5
 0001:000078D6       loc_100088D6
 0001:000078EE       loc_100088EE
 0001:00007932       loc_10008932
 0001:0000794D       loc_1000894D
 0001:00007963       loc_10008963
 0001:00007984       loc_10008984
 0001:00007992       loc_10008992
 0001:000079AC       loc_100089AC
 0001:000079B7       loc_100089B7
 0001:000079BA       loc_100089BA
 0001:000079BE       sub_100089BE
 0001:000079DB       sub_100089DB
 0001:000079DE       loc_100089DE
 0001:000079E7       sub_100089E7
 0001:00007A43       loc_10008A43
 0001:00007A55       loc_10008A55
 0001:00007A6D       loc_10008A6D
 0001:00007A7B       loc_10008A7B
 0001:00007A81       loc_10008A81
 0001:00007A85       loc_10008A85
 0001:00007A88       loc_10008A88
 0001:00007A98       sub_10008A98
 0001:00007AB5       loc_10008AB5
 0001:00007AE0       loc_10008AE0
 0001:00007B50       loc_10008B50
 0001:00007B80       loc_10008B80
 0001:00007B93       loc_10008B93
 0001:00007BA3       loc_10008BA3
 0001:00007BB1       SvcMain
 0001:00007BBD       loc_10008BBD
 0001:00007BE1       loc_10008BE1
 0001:00007BEA       locret_10008BEA
 0001:00007BEE       DllMain(x,x,x)
 0001:00007C00       loc_10008C00
 0001:00007C07       sub_10008C07
 0001:00007C4F       loc_10008C4F
 0001:00007CA3       loc_10008CA3
 0001:00007CB0       loc_10008CB0
 0001:00007CCD       loc_10008CCD
 0001:00007CFE       loc_10008CFE
 0001:00007D10       sub_10008D10
 0001:00007D69       loc_10008D69
 0001:00007D6F       sub_10008D6F
 0001:00007D8C       sub_10008D8C
 0001:00007DAF       loc_10008DAF
 0001:00007DB2       loc_10008DB2
 0001:00007E68       loc_10008E68
 0001:00007E6A       loc_10008E6A
 0001:00007E78       sub_10008E78
 0001:00007E97       loc_10008E97
 0001:00007EB2       loc_10008EB2
 0001:00007EDE       loc_10008EDE
 0001:00007EE0       locret_10008EE0
 0001:00007EE4       sub_10008EE4
 0001:00007F3C       loc_10008F3C
 0001:00007F57       loc_10008F57
 0001:00007F78       loc_10008F78
 0001:00007F89       loc_10008F89
 0001:00007F9A       loc_10008F9A
 0001:00007F9C       loc_10008F9C
 0001:00007FA1       sub_10008FA1
 0001:00007FB9       loc_10008FB9
 0001:00007FC0       sub_10008FC0
 0001:00007FF9       loc_10008FF9
 0001:00007FFD       loc_10008FFD
 0001:00008058       loc_10009058
 0001:00008068       sub_10009068
 0001:0000808A       loc_1000908A
 0001:00008091       sub_10009091
 0001:000080AC       loc_100090AC
 0001:000080AE       sub_100090AE
 0001:000080C6       loc_100090C6
 0001:000080CD       sub_100090CD
 0001:0000810B       loc_1000910B
 0001:0000812F       loc_1000912F
 0001:00008152       loc_10009152
 0001:00008155       loc_10009155
 0001:0000818C       loc_1000918C
 0001:00008194       loc_10009194
 0001:00008199       loc_10009199
 0001:0000819C       loc_1000919C
 0001:000081A4       loc_100091A4
 0001:000081C3       loc_100091C3
 0001:000081C7       loc_100091C7
 0001:000081D9       loc_100091D9
 0001:000081DC       loc_100091DC
 0001:000081E2       sub_100091E2
 0001:000082C9       loc_100092C9
 0001:000082ED       loc_100092ED
 0001:000082FD       sub_100092FD
 0001:0000837C       loc_1000937C
 0001:0000838B       loc_1000938B
 0001:00008390       loc_10009390
 0001:00008396       loc_10009396
 0001:0000839D       loc_1000939D
 0001:000083C0       loc_100093C0
 0001:000083DC       loc_100093DC
 0001:000083E7       loc_100093E7
 0001:000083F9       loc_100093F9
 0001:000083FC       loc_100093FC
 0001:00008407       loc_10009407
 0001:0000847D       loc_1000947D
 0001:00008484       loc_10009484
 0001:0000849F       loc_1000949F
 0001:000084E5       loc_100094E5
 0001:000084E8       loc_100094E8
 0001:00008504       loc_10009504
 0001:00008513       loc_10009513
 0001:00008516       loc_10009516
 0001:0000851D       sub_1000951D
 0001:0000858F       loc_1000958F
 0001:00008591       loc_10009591
 0001:000085A2       sub_100095A2
 0001:0000868F       loc_1000968F
 0001:000086A2       sub_100096A2
 0001:00008724       loc_10009724
 0001:00008726       loc_10009726
 0001:000087F8       loc_100097F8
 0001:00008804       loc_10009804
 0001:0000882F       loc_1000982F
 0001:0000883C       loc_1000983C
 0001:0000885A       loc_1000985A
 0001:00008899       loc_10009899
 0001:000088F8       sub_100098F8
 0001:0000891E       sub_1000991E
 0001:00008948       loc_10009948
 0001:0000894A       loc_1000994A
 0001:0000895C       loc_1000995C
 0001:0000895E       loc_1000995E
 0001:00008962       loc_10009962
 0001:00008969       sub_10009969
 0001:00008981       sub_10009981
 0001:000089A9       x_memmove2
 0001:000089D6       sub_100099D6
 0001:000089E8       loc_100099E8
 0001:00008A0D       loc_10009A0D
 0001:00008A18       loc_10009A18
 0001:00008A1C       loc_10009A1C
 0001:00008A37       loc_10009A37
 0001:00008A59       loc_10009A59
 0001:00008A65       loc_10009A65
 0001:00008A6C       loc_10009A6C
 0001:00008A73       sub_10009A73
 0001:00008A8F       loc_10009A8F
 0001:00008A99       loc_10009A99
 0001:00008AA1       loc_10009AA1
 0001:00008AA7       loc_10009AA7
 0001:00008ABC       loc_10009ABC
 0001:00008B0F       loc_10009B0F
 0001:00008B48       loc_10009B48
 0001:00008B51       sub_10009B51
 0001:00008B7D       sub_10009B7D
 0001:00008C00       sub_10009C00
 0001:00008C22       loc_10009C22
 0001:00008C37       loc_10009C37
 0001:00008C4E       loc_10009C4E
 0001:00008C66       loc_10009C66
 0001:00008C6E       sub_10009C6E
 0001:00008C89       loc_10009C89
 0001:00008C93       locret_10009C93
 0001:00008C94       sub_10009C94
 0001:00008CAC       loc_10009CAC
 0001:00008CBE       loc_10009CBE
 0001:00008CC7       loc_10009CC7
 0001:00008CD3       sub_10009CD3
 0001:00008CF9       loc_10009CF9
 0001:00008D07       loc_10009D07
 0001:00008D13       loc_10009D13
 0001:00008D1A       loc_10009D1A
 0001:00008D20       loc_10009D20
 0001:00008D26       sub_10009D26
 0001:00008D4D       loc_10009D4D
 0001:00008D54       loc_10009D54
 0001:00008D60       loc_10009D60
 0001:00008D6A       loc_10009D6A
 0001:00008D71       sub_10009D71
 0001:00008DB6       loc_10009DB6
 0001:00008DBD       loc_10009DBD
 0001:00008DDD       loc_10009DDD
 0001:00008E68       loc_10009E68
 0001:00008E6E       sub_10009E6E
 0001:00008E7E       loc_10009E7E
 0001:00008EA0       loc_10009EA0
 0001:00008EA4       sub_10009EA4
 0001:00008F31       sub_10009F31
 0001:00008F6F       sub_10009F6F
 0001:00008FBA       loc_10009FBA
 0001:00008FBE       loc_10009FBE
 0001:00008FF3       loc_10009FF3
 0001:00008FF5       loc_10009FF5
 0001:00009020       loc_1000A020
 0001:00009024       sub_1000A024
 0001:0000903B       loc_1000A03B
 0001:00009042       sub_1000A042
 0001:0000905A       loc_1000A05A
 0001:00009061       sub_1000A061
 0001:00009089       loc_1000A089
 0001:0000908F       loc_1000A08F
 0001:000090A2       loc_1000A0A2
 0001:000090A6       sub_1000A0A6
 0001:000090C1       loc_1000A0C1
 0001:000090CD       loc_1000A0CD
 0001:000090E9       loc_1000A0E9
 0001:000090FC       loc_1000A0FC
 0001:00009106       loc_1000A106
 0001:00009108       loc_1000A108
 0001:00009123       loc_1000A123
 0001:00009125       loc_1000A125
 0001:00009129       loc_1000A129
 0001:00009131       sub_1000A131
 0001:00009152       loc_1000A152
 0001:0000915A       loc_1000A15A
 0001:0000916C       sub_1000A16C
 0001:00009187       loc_1000A187
 0001:00009191       loc_1000A191
 0001:000091AE       loc_1000A1AE
 0001:000091C3       loc_1000A1C3
 0001:000091C5       loc_1000A1C5
 0001:000091CF       loc_1000A1CF
 0001:000091D1       loc_1000A1D1
 0001:000091F2       loc_1000A1F2
 0001:000091F4       loc_1000A1F4
 0001:000091FA       loc_1000A1FA
 0001:00009202       sub_1000A202
 0001:00009226       loc_1000A226
 0001:0000922E       loc_1000A22E
 0001:00009242       sub_1000A242
 0001:0000926C       loc_1000A26C
 0001:00009278       loc_1000A278
 0001:00009285       loc_1000A285
 0001:000092B5       loc_1000A2B5
 0001:00009318       loc_1000A318
 0001:00009323       loc_1000A323
 0001:00009360       loc_1000A360
 0001:00009364       loc_1000A364
 0001:00009373       loc_1000A373
 0001:00009383       loc_1000A383
 0001:00009397       sub_1000A397
 0001:000093A1       loc_1000A3A1
 0001:000093AE       loc_1000A3AE
 0001:000093B3       loc_1000A3B3
 0001:000093B9       loc_1000A3B9
 0001:000093C9       loc_1000A3C9
 0001:000093DC       loc_1000A3DC
 0001:000093E4       sub_1000A3E4
 0001:000093FD       loc_1000A3FD
 0001:00009413       sub_1000A413
 0001:00009436       locret_1000A436
 0001:00009438       sub_1000A438
 0001:00009451       loc_1000A451
 0001:0000946E       loc_1000A46E
 0001:00009470       loc_1000A470
 0001:00009476       loc_1000A476
 0001:0000947C       loc_1000A47C
 0001:0000947E       sub_1000A47E
 0001:000094A1       loc_1000A4A1
 0001:000094C4       loc_1000A4C4
 0001:000094C6       loc_1000A4C6
 0001:000094CC       loc_1000A4CC
 0001:000094D3       loc_1000A4D3
 0001:000094D6       sub_1000A4D6
 0001:000094FB       loc_1000A4FB
 0001:0000951E       loc_1000A51E
 0001:00009520       loc_1000A520
 0001:00009526       loc_1000A526
 0001:0000952C       loc_1000A52C
 0001:0000952F       sub_1000A52F
 0001:00009548       loc_1000A548
 0001:0000954F       sub_1000A54F
 0001:00009563       loc_1000A563
 0001:00009579       loc_1000A579
 0001:00009599       loc_1000A599
 0001:0000959B       loc_1000A59B
 0001:000095A5       loc_1000A5A5
 0001:000095A7       loc_1000A5A7
 0001:000095C4       loc_1000A5C4
 0001:000095C6       loc_1000A5C6
 0001:000095CA       loc_1000A5CA
 0001:000095CB       loc_1000A5CB
 0001:000095D2       sub_1000A5D2
 0001:000095EB       loc_1000A5EB
 0001:000095ED       loc_1000A5ED
 0001:000095FA       loc_1000A5FA
 0001:000095FC       loc_1000A5FC
 0001:0000960E       loc_1000A60E
 0001:00009610       loc_1000A610
 0001:0000961D       loc_1000A61D
 0001:00009632       loc_1000A632
 0001:00009634       loc_1000A634
 0001:0000964C       loc_1000A64C
 0001:0000964E       loc_1000A64E
 0001:00009652       loc_1000A652
 0001:00009654       loc_1000A654
 0001:00009658       sub_1000A658
 0001:0000966C       loc_1000A66C
 0001:00009674       loc_1000A674
 0001:00009685       loc_1000A685
 0001:00009687       loc_1000A687
 0001:00009690       loc_1000A690
 0001:00009692       loc_1000A692
 0001:000096B8       loc_1000A6B8
 0001:000096BA       loc_1000A6BA
 0001:000096BE       loc_1000A6BE
 0001:000096C2       sub_1000A6C2
 0001:000096D1       loc_1000A6D1
 0001:000096E3       loc_1000A6E3
 0001:000096F1       loc_1000A6F1
 0001:000096F4       loc_1000A6F4
 0001:000096FD       sub_1000A6FD
 0001:00009716       loc_1000A716
 0001:00009718       loc_1000A718
 0001:00009725       loc_1000A725
 0001:00009727       loc_1000A727
 0001:0000973A       loc_1000A73A
 0001:0000973C       loc_1000A73C
 0001:0000974D       loc_1000A74D
 0001:00009766       loc_1000A766
 0001:00009768       loc_1000A768
 0001:00009785       loc_1000A785
 0001:00009787       loc_1000A787
 0001:0000978D       loc_1000A78D
 0001:00009790       loc_1000A790
 0001:00009796       sub_1000A796
 0001:000097AA       loc_1000A7AA
 0001:000097B2       loc_1000A7B2
 0001:000097C3       loc_1000A7C3
 0001:000097C5       loc_1000A7C5
 0001:000097CE       loc_1000A7CE
 0001:000097D0       loc_1000A7D0
 0001:000097FB       loc_1000A7FB
 0001:000097FD       loc_1000A7FD
 0001:00009803       loc_1000A803
 0001:00009807       sub_1000A807
 0001:00009819       loc_1000A819
 0001:0000982B       loc_1000A82B
 0001:00009839       loc_1000A839
 0001:0000983E       loc_1000A83E
 0001:00009847       sub_1000A847
 0001:0000985A       loc_1000A85A
 0001:00009894       loc_1000A894
 0001:000098A5       loc_1000A8A5
 0001:000098A9       sub_1000A8A9
 0001:000098C6       loc_1000A8C6
 0001:000098FB       loc_1000A8FB
 0001:0000990E       loc_1000A90E
 0001:0000991F       loc_1000A91F
 0001:0000992B       loc_1000A92B
 0001:0000994B       loc_1000A94B
 0001:0000994E       loc_1000A94E
 0001:0000996B       loc_1000A96B
 0001:00009973       loc_1000A973
 0001:00009989       loc_1000A989
 0001:0000998F       loc_1000A98F
 0001:000099A3       sub_1000A9A3
 0001:000099BE       loc_1000A9BE
 0001:000099E9       loc_1000A9E9
 0001:000099F3       loc_1000A9F3
 0001:00009A01       loc_1000AA01
 0001:00009A07       loc_1000AA07
 0001:00009A25       loc_1000AA25
 0001:00009A3B       loc_1000AA3B
 0001:00009A40       loc_1000AA40
 0001:00009A54       sub_1000AA54
 0001:00009A62       loc_1000AA62
 0001:00009A97       loc_1000AA97
 0001:00009A9B       loc_1000AA9B
 0001:00009A9F       sub_1000AA9F
 0001:00009AA9       loc_1000AAA9
 0001:00009AAB       loc_1000AAAB
 0001:00009AC0       loc_1000AAC0
 0001:00009ACB       sub_1000AACB
 0001:00009AEE       locret_1000AAEE
 0001:00009AF0       sub_1000AAF0
 0001:00009B08       loc_1000AB08
 0001:00009B2F       loc_1000AB2F
 0001:00009B4B       loc_1000AB4B
 0001:00009B4D       loc_1000AB4D
 0001:00009B5C       loc_1000AB5C
 0001:00009B7A       loc_1000AB7A
 0001:00009B85       sub_1000AB85
 0001:00009BA4       loc_1000ABA4
 0001:00009BB7       locret_1000ABB7
 0001:00009BBB       sub_1000ABBB
 0001:00009BD7       loc_1000ABD7
 0001:00009C00       loc_1000AC00
 0001:00009C1C       loc_1000AC1C
 0001:00009C1E       loc_1000AC1E
 0001:00009C2D       loc_1000AC2D
 0001:00009C4B       loc_1000AC4B
 0001:00009C58       sub_1000AC58
 0001:00009C7B       locret_1000AC7B
 0001:00009C7D       sub_1000AC7D
 0001:00009CA8       loc_1000ACA8
 0001:00009CB0       loc_1000ACB0
 0001:00009CD4       loc_1000ACD4
 0001:00009CD9       sub_1000ACD9
 0001:00009CFA       loc_1000ACFA
 0001:00009D0D       locret_1000AD0D
 0001:00009D0F       sub_1000AD0F
 0001:00009D22       loc_1000AD22
 0001:00009D45       loc_1000AD45
 0001:00009D4C       sub_1000AD4C
 0001:00009D62       loc_1000AD62
 0001:00009D78       loc_1000AD78
 0001:00009D83       loc_1000AD83
 0001:00009D86       loc_1000AD86
 0001:00009D8F       sub_1000AD8F
 0001:00009DA5       loc_1000ADA5
 0001:00009DBB       loc_1000ADBB
 0001:00009DC8       loc_1000ADC8
 0001:00009DCA       loc_1000ADCA
 0001:00009DD4       sub_1000ADD4
 0001:00009DE8       loc_1000ADE8
 0001:00009DEA       loc_1000ADEA
 0001:00009DF5       loc_1000ADF5
 0001:00009DFE       loc_1000ADFE
 0001:00009E06       loc_1000AE06
 0001:00009E08       loc_1000AE08
 0001:00009E0A       sub_1000AE0A
 0001:00009E2E       loc_1000AE2E
 0001:00009E36       loc_1000AE36
 0001:00009E44       sub_1000AE44
 0001:00009E5A       sub_1000AE5A
 0001:00009E96       loc_1000AE96
 0001:00009E9D       loc_1000AE9D
 0001:00009EB1       loc_1000AEB1
 0001:00009EB5       sub_1000AEB5
 0001:00009EE0       loc_1000AEE0
 0001:00009EF4       loc_1000AEF4
 0001:00009EF8       loc_1000AEF8
 0001:00009F0A       loc_1000AF0A
 0001:00009F37       loc_1000AF37
 0001:00009F5C       loc_1000AF5C
 0001:00009F67       loc_1000AF67
 0001:00009F69       loc_1000AF69
 0001:00009F76       loc_1000AF76
 0001:00009F7A       loc_1000AF7A
 0001:00009F8B       loc_1000AF8B
 0001:00009F8C       loc_1000AF8C
 0001:00009F92       sub_1000AF92
 0001:00009FA9       loc_1000AFA9
 0001:00009FC2       loc_1000AFC2
 0001:00009FED       loc_1000AFED
 0001:00009FEF       loc_1000AFEF
 0001:00009FF8       loc_1000AFF8
 0001:00009FFA       loc_1000AFFA
 0001:0000A01C       loc_1000B01C
 0001:0000A01E       loc_1000B01E
 0001:0000A027       loc_1000B027
 0001:0000A029       loc_1000B029
 0001:0000A033       loc_1000B033
 0001:0000A03B       loc_1000B03B
 0001:0000A045       loc_1000B045
 0001:0000A047       loc_1000B047
 0001:0000A04F       loc_1000B04F
 0001:0000A062       loc_1000B062
 0001:0000A064       loc_1000B064
 0001:0000A068       loc_1000B068
 0001:0000A069       loc_1000B069
 0001:0000A06E       sub_1000B06E
 0001:0000A082       loc_1000B082
 0001:0000A098       loc_1000B098
 0001:0000A0B8       loc_1000B0B8
 0001:0000A0BA       loc_1000B0BA
 0001:0000A0C4       loc_1000B0C4
 0001:0000A0C6       loc_1000B0C6
 0001:0000A0E7       loc_1000B0E7
 0001:0000A0E9       loc_1000B0E9
 0001:0000A0EF       loc_1000B0EF
 0001:0000A0F0       loc_1000B0F0
 0001:0000A0F7       sub_1000B0F7
 0001:0000A10C       loc_1000B10C
 0001:0000A122       loc_1000B122
 0001:0000A14F       loc_1000B14F
 0001:0000A151       loc_1000B151
 0001:0000A159       loc_1000B159
 0001:0000A15B       loc_1000B15B
 0001:0000A181       loc_1000B181
 0001:0000A183       loc_1000B183
 0001:0000A18B       loc_1000B18B
 0001:0000A18D       loc_1000B18D
 0001:0000A197       loc_1000B197
 0001:0000A19E       loc_1000B19E
 0001:0000A1A7       loc_1000B1A7
 0001:0000A1A9       loc_1000B1A9
 0001:0000A1B1       loc_1000B1B1
 0001:0000A1C3       loc_1000B1C3
 0001:0000A1C5       loc_1000B1C5
 0001:0000A1CB       loc_1000B1CB
 0001:0000A1CC       loc_1000B1CC
 0001:0000A1D3       sub_1000B1D3
 0001:0000A1EE       loc_1000B1EE
 0001:0000A204       loc_1000B204
 0001:0000A207       loc_1000B207
 0001:0000A21F       loc_1000B21F
 0001:0000A234       loc_1000B234
 0001:0000A23F       loc_1000B23F
 0001:0000A24F       loc_1000B24F
 0001:0000A265       loc_1000B265
 0001:0000A26F       sub_1000B26F
 0001:0000A297       loc_1000B297
 0001:0000A2B5       loc_1000B2B5
 0001:0000A2C8       loc_1000B2C8
 0001:0000A2D6       loc_1000B2D6
 0001:0000A2E1       loc_1000B2E1
 0001:0000A303       loc_1000B303
 0001:0000A322       loc_1000B322
 0001:0000A32A       loc_1000B32A
 0001:0000A344       loc_1000B344
 0001:0000A352       loc_1000B352
 0001:0000A36F       loc_1000B36F
 0001:0000A372       loc_1000B372
 0001:0000A390       sub_1000B390
 0001:0000A39F       loc_1000B39F
 0001:0000A3A8       loc_1000B3A8
 0001:0000A3AA       loc_1000B3AA
 0001:0000A3B6       loc_1000B3B6
 0001:0000A3BE       loc_1000B3BE
 0001:0000A3C6       loc_1000B3C6
 0001:0000A3CD       loc_1000B3CD
 0001:0000A3CF       loc_1000B3CF
 0001:0000A3D1       sub_1000B3D1
 0001:0000A404       loc_1000B404
 0001:0000A42A       loc_1000B42A
 0001:0000A437       loc_1000B437
 0001:0000A451       loc_1000B451
 0001:0000A46A       loc_1000B46A
 0001:0000A4C0       loc_1000B4C0
 0001:0000A4C5       loc_1000B4C5
 0001:0000A4DB       loc_1000B4DB
 0001:0000A4DD       loc_1000B4DD
 0001:0000A4F3       loc_1000B4F3
 0001:0000A513       loc_1000B513
 0001:0000A526       loc_1000B526
 0001:0000A540       loc_1000B540
 0001:0000A587       loc_1000B587
 0001:0000A5B1       loc_1000B5B1
 0001:0000A5C5       loc_1000B5C5
 0001:0000A5DB       loc_1000B5DB
 0001:0000A5F2       loc_1000B5F2
 0001:0000A654       loc_1000B654
 0001:0000A660       loc_1000B660
 0001:0000A667       sub_1000B667
 0001:0000A68D       sub_1000B68D
 0001:0000A6C4       loc_1000B6C4
 0001:0000A6C9       loc_1000B6C9
 0001:0000A6E0       loc_1000B6E0
 0001:0000A6F9       loc_1000B6F9
 0001:0000A6FB       loc_1000B6FB
 0001:0000A743       loc_1000B743
 0001:0000A756       sub_1000B756
 0001:0000A777       loc_1000B777
 0001:0000A78E       loc_1000B78E
 0001:0000A7B0       sub_1000B7B0
 0001:0000A7D2       loc_1000B7D2
 0001:0000A7E1       loc_1000B7E1
 0001:0000A7EF       loc_1000B7EF
 0001:0000A810       loc_1000B810
 0001:0000A81C       loc_1000B81C
 0001:0000A826       loc_1000B826
 0001:0000A829       loc_1000B829
 0001:0000A861       loc_1000B861
 0001:0000A877       loc_1000B877
 0001:0000A886       loc_1000B886
 0001:0000A890       loc_1000B890
 0001:0000A895       sub_1000B895
 0001:0000A89D       sub_1000B89D
 0001:0000A8A5       sub_1000B8A5
 0001:0000A8AA       sub_1000B8AA
 0001:0000A8C7       sub_1000B8C7
 0001:0000A8F7       sub_1000B8F7
 0001:0000A914       sub_1000B914
 0001:0000A944       sub_1000B944
 0001:0000A961       sub_1000B961
 0001:0000A97B       loc_1000B97B
 0001:0000A982       _new
 0001:0000A98D       __security_check_cookie(x)
 0001:0000A997       loc_1000B997
 0001:0000A9A0       _memmove
 0001:0000A9C0       CopyUp
 0001:0000A9E4       Dword_align
 0001:0000AA00       CopyLeadUp
 0001:0000AA18       ByteCopyUp
 0001:0000AA20       CopyUnwindUp
 0001:0000AA34       LeadUp1
 0001:0000AA60       LeadUp2
 0001:0000AA84       LeadUp3
 0001:0000AAA4       off_1000BAA4
 0001:0000AAC4       UnwindUp7
 0001:0000AACC       UnwindUp6
 0001:0000AAD4       UnwindUp5
 0001:0000AADC       UnwindUp4
 0001:0000AAE4       UnwindUp3
 0001:0000AAEC       UnwindUp2
 0001:0000AAF4       UnwindUp1
 0001:0000AB07       UnwindUp0
 0001:0000AB10       off_1000BB10
 0001:0000AB20       TrailUp0
 0001:0000AB28       TrailUp1
 0001:0000AB34       TrailUp2
 0001:0000AB48       TrailUp3
 0001:0000AB60       CopyDown
 0001:0000AB88       CopyUnwindDown
 0001:0000AB94       CopyLeadDown
 0001:0000ABAC       ByteCopyDown
 0001:0000ABC0       LeadDown1
 0001:0000ABE4       LeadDown2
 0001:0000AC0C       LeadDown3
 0001:0000AC5C       off_1000BC5C
 0001:0000AC60       UnwindDown7
 0001:0000AC68       UnwindDown6
 0001:0000AC70       UnwindDown5
 0001:0000AC78       UnwindDown4
 0001:0000AC80       UnwindDown3
 0001:0000AC88       UnwindDown2
 0001:0000AC90       UnwindDown1
 0001:0000ACA3       UnwindDown0
 0001:0000ACAC       off_1000BCAC
 0001:0000ACBC       TrailDown0
 0001:0000ACC4       TrailDown1
 0001:0000ACD4       TrailDown2
 0001:0000ACE8       TrailDown3
 0001:0000AD01       _wcschr
 0001:0000AD0F       loc_1000BD0F
 0001:0000AD17       loc_1000BD17
 0001:0000AD26       loc_1000BD26
 0001:0000AD28       sub_1000BD28
 0001:0000AD37       __call_reportfault
 0001:0000AD5D       loc_1000BD5D
 0001:0000AE52       loc_1000BE52
 0001:0000AE60       __invoke_watson
 0001:0000AE85       __invalid_parameter
 0001:0000AE9D       loc_1000BE9D
 0001:0000AEB1       $LN5
 0001:0000AEB2       __invalid_parameter_noinfo
 0001:0000AED0       _memmove_0
 0001:0000AEF0       CopyUp_0
 0001:0000AF14       Dword_align_0
 0001:0000AF30       CopyLeadUp_0
 0001:0000AF48       ByteCopyUp_0
 0001:0000AF50       CopyUnwindUp_0
 0001:0000AF64       LeadUp1_0
 0001:0000AF90       LeadUp2_0
 0001:0000AFB4       LeadUp3_0
 0001:0000AFD4       off_1000BFD4
 0001:0000AFF4       UnwindUp7_0
 0001:0000AFFC       UnwindUp6_0
 0001:0000B004       UnwindUp5_0
 0001:0000B00C       UnwindUp4_0
 0001:0000B014       UnwindUp3_0
 0001:0000B01C       UnwindUp2_0
 0001:0000B024       UnwindUp1_0
 0001:0000B037       UnwindUp0_0
 0001:0000B040       off_1000C040
 0001:0000B050       TrailUp0_0
 0001:0000B058       TrailUp1_0
 0001:0000B064       TrailUp2_0
 0001:0000B078       TrailUp3_0
 0001:0000B090       CopyDown_0
 0001:0000B0B8       CopyUnwindDown_0
 0001:0000B0C4       CopyLeadDown_0
 0001:0000B0DC       ByteCopyDown_0
 0001:0000B0F0       LeadDown1_0
 0001:0000B114       LeadDown2_0
 0001:0000B13C       LeadDown3_0
 0001:0000B18C       off_1000C18C
 0001:0000B190       UnwindDown7_0
 0001:0000B198       UnwindDown6_0
 0001:0000B1A0       UnwindDown5_0
 0001:0000B1A8       UnwindDown4_0
 0001:0000B1B0       UnwindDown3_0
 0001:0000B1B8       UnwindDown2_0
 0001:0000B1C0       UnwindDown1_0
 0001:0000B1D3       UnwindDown0_0
 0001:0000B1DC       off_1000C1DC
 0001:0000B1EC       TrailDown0_0
 0001:0000B1F4       TrailDown1_0
 0001:0000B204       TrailDown2_0
 0001:0000B218       TrailDown3_0
 0001:0000B240       _strlen
 0001:0000B24C       str_misaligned
 0001:0000B270       main_loop
 0001:0000B2A3       loc_1000C2A3
 0001:0000B2AD       loc_1000C2AD
 0001:0000B2B7       loc_1000C2B7
 0001:0000B2C1       loc_1000C2C1
 0001:0000B2D0       _strstr
 0001:0000B2E8       findnext
 0001:0000B2FB       loop_start
 0001:0000B300       in_loop
 0001:0000B308       not_found
 0001:0000B30E       first_char_found
 0001:0000B317       two_first_chars_equal
 0001:0000B31A       compare_loop
 0001:0000B33D       strchr_call
 0001:0000B349       match
 0001:0000B350       empty_str2
 0001:0000B360       _strcpy
 0001:0000B370       _strcat
 0001:0000B37D       dest_misaligned
 0001:0000B390       find_end_of_dest_string_loop
 0001:0000B3C3       start_byte_3
 0001:0000B3C8       start_byte_2
 0001:0000B3CD       start_byte_1
 0001:0000B3D2       start_byte_0
 0001:0000B3D5       copy_start
 0001:0000B3E1       src_misaligned
 0001:0000B3F9       main_loop_0
 0001:0000B3FE       main_loop_entrance
 0001:0000B432       loc_1000C432
 0001:0000B43A       loc_1000C43A
 0001:0000B447       loc_1000C447
 0001:0000B450       loc_1000C450
 0001:0000B458       _LocaleUpdate::_LocaleUpdate(localeinfo_struct *)
 0001:0000B49A       loc_1000C49A
 0001:0000B4BB       loc_1000C4BB
 0001:0000B4CE       loc_1000C4CE
 0001:0000B4D8       loc_1000C4D8
 0001:0000B4DF       strtoxl(localeinfo_struct *,char const *,char const * *,int,int)
 0001:0000B4FF       loc_1000C4FF
 0001:0000B503       loc_1000C503
 0001:0000B520       loc_1000C520
 0001:0000B527       loc_1000C527
 0001:0000B539       loc_1000C539
 0001:0000B547       loc_1000C547
 0001:0000B567       loc_1000C567
 0001:0000B577       loc_1000C577
 0001:0000B580       loc_1000C580
 0001:0000B58B       loc_1000C58B
 0001:0000B590       loc_1000C590
 0001:0000B593       loc_1000C593
 0001:0000B5C2       loc_1000C5C2
 0001:0000B5D5       loc_1000C5D5
 0001:0000B5DE       loc_1000C5DE
 0001:0000B5E8       loc_1000C5E8
 0001:0000B5F2       loc_1000C5F2
 0001:0000B5F8       loc_1000C5F8
 0001:0000B609       loc_1000C609
 0001:0000B61F       loc_1000C61F
 0001:0000B635       loc_1000C635
 0001:0000B638       loc_1000C638
 0001:0000B64D       loc_1000C64D
 0001:0000B657       loc_1000C657
 0001:0000B668       loc_1000C668
 0001:0000B66E       loc_1000C66E
 0001:0000B67A       loc_1000C67A
 0001:0000B67F       loc_1000C67F
 0001:0000B69A       loc_1000C69A
 0001:0000B6A3       loc_1000C6A3
 0001:0000B6BA       loc_1000C6BA
 0001:0000B6C9       loc_1000C6C9
 0001:0000B6D2       loc_1000C6D2
 0001:0000B6DB       loc_1000C6DB
 0001:0000B6E8       loc_1000C6E8
 0001:0000B6ED       loc_1000C6ED
 0001:0000B6F6       loc_1000C6F6
 0001:0000B703       loc_1000C703
 0001:0000B705       loc_1000C705
 0001:0000B707       loc_1000C707
 0001:0000B70A       _strtol
 0001:0000B72A       loc_1000C72A
 0001:0000B72B       loc_1000C72B
 0001:0000B735       _wcslen
 0001:0000B73D       loc_1000C73D
 0001:0000B750       _memset
 0001:0000B77C       loc_1000C77C
 0001:0000B78D       adjust_loop
 0001:0000B797       dwords
 0001:0000B7B1       main_loop_tail
 0001:0000B7B5       tail
 0001:0000B7BF       finish
 0001:0000B7C5       toend
 0001:0000B7CA       sub_1000C7CA
 0001:0000B7D5       operator delete(void *)
 0001:0000B7E0       _wcscpy
 0001:0000B7ED       loc_1000C7ED
 0001:0000B801       sub_1000C801
 0001:0000B80C       sub_1000C80C
 0001:0000B82C       loc_1000C82C
 0001:0000B833       sub_1000C833
 0001:0000B850       operator new(uint)
 0001:0000B85A       loc_1000C85A
 0001:0000B867       loc_1000C867
 0001:0000B876       loc_1000C876
 0001:0000B8B5       loc_1000C8B5
 0001:0000B8CF       $LN15
 0001:0000B8D0       _CRT_INIT(x,x,x)
 0001:0000B8ED       loc_1000C8ED
 0001:0000B8F4       loc_1000C8F4
 0001:0000B8FD       loc_1000C8FD
 0001:0000B904       loc_1000C904
 0001:0000B927       loc_1000C927
 0001:0000B92E       loc_1000C92E
 0001:0000B957       loc_1000C957
 0001:0000B95E       loc_1000C95E
 0001:0000B982       loc_1000C982
 0001:0000B996       loc_1000C996
 0001:0000B9A2       loc_1000C9A2
 0001:0000B9A7       $LN34
 0001:0000B9A9       $LN28
 0001:0000B9BC       $LN27
 0001:0000B9BF       loc_1000C9BF
 0001:0000BA11       loc_1000CA11
 0001:0000BA1D       loc_1000CA1D
 0001:0000BA29       $LN29_0
 0001:0000BA2C       loc_1000CA2C
 0001:0000BA34       ___DllMainCRTStartup
 0001:0000BA5D       loc_1000CA5D
 0001:0000BA6A       loc_1000CA6A
 0001:0000BA7B       loc_1000CA7B
 0001:0000BA98       loc_1000CA98
 0001:0000BACC       loc_1000CACC
 0001:0000BAD5       loc_1000CAD5
 0001:0000BAE4       loc_1000CAE4
 0001:0000BAFB       loc_1000CAFB
 0001:0000BB07       $LN29
 0001:0000BB17       $LN25
 0001:0000BB18       $LN18
 0001:0000BB1B       loc_1000CB1B
 0001:0000BB22       loc_1000CB22
 0001:0000BB24       loc_1000CB24
 0001:0000BB2A       DllEntryPoint
 0001:0000BB3A       loc_1000CB3A
 0001:0000BB4D       std::exception::exception(char const * const &,int)
 0001:0000BB6A       unknown_libname_2
 0001:0000BB76       locret_1000CB76
 0001:0000BB77       std::exception::_Copy_str(char const *)
 0001:0000BBB1       loc_1000CBB1
 0001:0000BBB2       loc_1000CBB2
 0001:0000BBB7       std::exception::_Tidy(void)
 0001:0000BBCB       loc_1000CBCB
 0001:0000BBD5       std::exception::exception(char const * const &)
 0001:0000BBFC       std::exception::operator=(std::exception const &)
 0001:0000BC23       loc_1000CC23
 0001:0000BC29       loc_1000CC29
 0001:0000BC31       sub_1000CC31
 0001:0000BC3C       sub_1000CC3C
 0001:0000BC5C       loc_1000CC5C
 0001:0000BC63       std::exception::exception(std::exception const &)
 0001:0000BC88       sub_1000CC88
 0001:0000BC98       sub_1000CC98
 0001:0000BCB2       loc_1000CCB2
 0001:0000BCB9       _CxxThrowException(x,x)
 0001:0000BCEE       loc_1000CCEE
 0001:0000BD05       ___report_gsfailure
 0001:0000BDF7       loc_1000CDF7
 0001:0000BE0B       __VEC_memcpy
 0001:0000BE19       $L_Aligned$1118
 0001:0000BE2B       loc_1000CE2B
 0001:0000BE88       $L_1a$1119
 0001:0000BE9B       loc_1000CE9B
 0001:0000BEAC       $L_Trailing$1122
 0001:0000BEB8       $L_TrailDword$1125
 0001:0000BEC5       $L_TrailBytes$1124
 0001:0000BECC       $L_TrailNextByte$1126
 0001:0000BED5       $L_Return$1121
 0001:0000BEDA       $L_Notaligned$1117
 0001:0000BEED       $L_Byte$1128
 0001:0000BEF6       $L_MovDword$1127
 0001:0000BEFB       $L_Dword$1130
 0001:0000BF08       $L_Adjustcnt$1129
 0001:0000BF0E       sub_1000CF0E
 0001:0000BF1E       sub_1000CF1E
 0001:0000BF30       found_bx
 0001:0000BF40       _strchr
 0001:0000BF46       ___from_strstr_to_strchr
 0001:0000BF58       str_misaligned_0
 0001:0000BF6D       main_loop_start
 0001:0000BF78       main_loop_1
 0001:0000BFB4       retnull
 0001:0000BFB6       retnull_bx
 0001:0000BFBA       chr_is_found
 0001:0000BFE2       loc_1000CFE2
 0001:0000BFE9       loc_1000CFE9
 0001:0000BFF0       loc_1000CFF0
 0001:0000BFF7       loc_1000CFF7
 0001:0000BFFE       _CPtoLCID
 0001:0000C015       loc_1000D015
 0001:0000C01B       loc_1000D01B
 0001:0000C021       loc_1000D021
 0001:0000C027       loc_1000D027
 0001:0000C02D       setSBCS(threadmbcinfostruct *)
 0001:0000C071       loc_1000D071
 0001:0000C085       loc_1000D085
 0001:0000C091       setSBUpLow(threadmbcinfostruct *)
 0001:0000C0C7       loc_1000D0C7
 0001:0000C0EA       loc_1000D0EA
 0001:0000C10A       loc_1000D10A
 0001:0000C114       loc_1000D114
 0001:0000C17E       loc_1000D17E
 0001:0000C199       loc_1000D199
 0001:0000C1AA       loc_1000D1AA
 0001:0000C1B3       loc_1000D1B3
 0001:0000C1BA       loc_1000D1BA
 0001:0000C1C1       loc_1000D1C1
 0001:0000C1D9       loc_1000D1D9
 0001:0000C1FA       loc_1000D1FA
 0001:0000C207       loc_1000D207
 0001:0000C20B       loc_1000D20B
 0001:0000C20E       loc_1000D20E
 0001:0000C213       loc_1000D213
 0001:0000C221       ___updatetmbcinfo
 0001:0000C247       $LN14
 0001:0000C253       loc_1000D253
 0001:0000C25B       loc_1000D25B
 0001:0000C293       loc_1000D293
 0001:0000C2AB       loc_1000D2AB
 0001:0000C2B7       loc_1000D2B7
 0001:0000C2B9       $LN18_0
 0001:0000C2BC       $LN13
 0001:0000C2C4       $LN12
 0001:0000C2C5       getSystemCP(int)
 0001:0000C2F4       loc_1000D2F4
 0001:0000C302       loc_1000D302
 0001:0000C319       loc_1000D319
 0001:0000C330       loc_1000D330
 0001:0000C33C       loc_1000D33C
 0001:0000C33E       loc_1000D33E
 0001:0000C341       __setmbcp_nolock
 0001:0000C36C       loc_1000D36C
 0001:0000C373       loc_1000D373
 0001:0000C37A       loc_1000D37A
 0001:0000C37F       loc_1000D37F
 0001:0000C406       loc_1000D406
 0001:0000C41C       loc_1000D41C
 0001:0000C442       loc_1000D442
 0001:0000C451       loc_1000D451
 0001:0000C463       loc_1000D463
 0001:0000C46D       loc_1000D46D
 0001:0000C472       loc_1000D472
 0001:0000C4A4       loc_1000D4A4
 0001:0000C4B3       loc_1000D4B3
 0001:0000C4BF       loc_1000D4BF
 0001:0000C4C5       loc_1000D4C5
 0001:0000C4D6       loc_1000D4D6
 0001:0000C4DE       loc_1000D4DE
 0001:0000C4F5       loc_1000D4F5
 0001:0000C4F8       loc_1000D4F8
 0001:0000C50C       loc_1000D50C
 0001:0000C518       loc_1000D518
 0001:0000C51B       loc_1000D51B
 0001:0000C52A       __setmbcp
 0001:0000C5BB       loc_1000D5BB
 0001:0000C604       loc_1000D604
 0001:0000C61C       loc_1000D61C
 0001:0000C61E       loc_1000D61E
 0001:0000C635       loc_1000D635
 0001:0000C637       loc_1000D637
 0001:0000C651       loc_1000D651
 0001:0000C674       loc_1000D674
 0001:0000C689       loc_1000D689
 0001:0000C68B       $LN27_0
 0001:0000C693       $LN26
 0001:0000C696       loc_1000D696
 0001:0000C6AA       loc_1000D6AA
 0001:0000C6B7       loc_1000D6B7
 0001:0000C6BB       $LN28_0
 0001:0000C6C4       ___initmbctable
 0001:0000C6DF       loc_1000D6DF
 0001:0000C6E2       ___addlocaleref
 0001:0000C703       loc_1000D703
 0001:0000C710       loc_1000D710
 0001:0000C71D       loc_1000D71D
 0001:0000C72A       loc_1000D72A
 0001:0000C734       loc_1000D734
 0001:0000C746       loc_1000D746
 0001:0000C756       loc_1000D756
 0001:0000C771       ___removelocaleref
 0001:0000C79A       loc_1000D79A
 0001:0000C7A7       loc_1000D7A7
 0001:0000C7B4       loc_1000D7B4
 0001:0000C7C1       loc_1000D7C1
 0001:0000C7CB       loc_1000D7CB
 0001:0000C7DD       loc_1000D7DD
 0001:0000C7ED       loc_1000D7ED
 0001:0000C805       loc_1000D805
 0001:0000C80A       ___freetlocinfo
 0001:0000C857       loc_1000D857
 0001:0000C878       loc_1000D878
 0001:0000C890       loc_1000D890
 0001:0000C8DE       loc_1000D8DE
 0001:0000C906       loc_1000D906
 0001:0000C910       loc_1000D910
 0001:0000C92A       loc_1000D92A
 0001:0000C941       loc_1000D941
 0001:0000C955       __updatetlocinfoEx_nolock
 0001:0000C998       loc_1000D998
 0001:0000C99D       loc_1000D99D
 0001:0000C99F       loc_1000D99F
 0001:0000C9A2       ___updatetlocinfo
 0001:0000C9CD       $LN12_0
 0001:0000C9D9       loc_1000D9D9
 0001:0000C9E1       loc_1000D9E1
 0001:0000CA0D       loc_1000DA0D
 0001:0000CA0F       $LN11
 0001:0000CA17       $LN10
 0001:0000CA1B       __encoded_null
 0001:0000CA24       __crtTlsAlloc(x)
 0001:0000CA2D       ___set_flsgetvalue
 0001:0000CA5D       loc_1000DA5D
 0001:0000CA61       __mtterm
 0001:0000CA81       loc_1000DA81
 0001:0000CA99       loc_1000DA99
 0001:0000CA9E       __initptd
 0001:0000CB02       $LN10_0
 0001:0000CB1F       loc_1000DB1F
 0001:0000CB34       $LN14_0
 0001:0000CB3A       $LN17
 0001:0000CB40       $LN9
 0001:0000CB48       $LN8
 0001:0000CB49       $LN13_0
 0001:0000CB51       $LN12_1
 0001:0000CB52       __getptd_noexit
 0001:0000CBB6       loc_1000DBB6
 0001:0000CBBF       loc_1000DBBF
 0001:0000CBCB       __getptd
 0001:0000CBE1       loc_1000DBE1
 0001:0000CBE5       _freefls(x)
 0001:0000CC0A       loc_1000DC0A
 0001:0000CC18       loc_1000DC18
 0001:0000CC26       loc_1000DC26
 0001:0000CC34       loc_1000DC34
 0001:0000CC42       loc_1000DC42
 0001:0000CC50       loc_1000DC50
 0001:0000CC5E       loc_1000DC5E
 0001:0000CC6F       loc_1000DC6F
 0001:0000CC9C       loc_1000DC9C
 0001:0000CCA8       $LN21
 0001:0000CCE1       loc_1000DCE1
 0001:0000CCED       $LN25_0
 0001:0000CCF4       loc_1000DCF4
 0001:0000CCFC       $LN28_1
 0001:0000CCFF       $LN20
 0001:0000CD07       $LN19
 0001:0000CD08       $LN29_1
 0001:0000CD0B       $LN24
 0001:0000CD13       $LN23
 0001:0000CD14       __freeptd
 0001:0000CD4E       loc_1000DD4E
 0001:0000CD4F       loc_1000DD4F
 0001:0000CD6D       loc_1000DD6D
 0001:0000CD80       loc_1000DD80
 0001:0000CD82       __mtinit
 0001:0000CD9F       loc_1000DD9F
 0001:0000CDFF       loc_1000DDFF
 0001:0000CE23       loc_1000DE23
 0001:0000CEF3       loc_1000DEF3
 0001:0000CEF8       loc_1000DEF8
 0001:0000CEFA       loc_1000DEFA
 0001:0000CEFD       __isctype_l
 0001:0000CF2D       loc_1000DF2D
 0001:0000CF5E       loc_1000DF5E
 0001:0000CF68       loc_1000DF68
 0001:0000CF9A       loc_1000DF9A
 0001:0000CF9E       loc_1000DF9E
 0001:0000CFA2       loc_1000DFA2
 0001:0000CFB2       loc_1000DFB2
 0001:0000CFB5       __get_errno_from_oserr
 0001:0000CFBF       loc_1000DFBF
 0001:0000CFDB       loc_1000DFDB
 0001:0000CFE4       loc_1000DFE4
 0001:0000CFF7       __errno
 0001:0000D006       loc_1000E006
 0001:0000D00A       __VEC_memzero
 0001:0000D019       $L_Aligned$1118_0
 0001:0000D02A       loc_1000E02A
 0001:0000D05A       $L_1a$1119_0
 0001:0000D06A       loc_1000E06A
 0001:0000D074       $L_Trailing$1122_0
 0001:0000D082       $L_TrailDword$1125_0
 0001:0000D08A       $L_TrailBytes$1124_0
 0001:0000D08F       $L_TrailNextByte$1127
 0001:0000D095       $L_Return$1121_0
 0001:0000D098       $L_Notaligned$1117_0
 0001:0000D0AB       $L_Byte$1129
 0001:0000D0B1       $L_MovDword$1128
 0001:0000D0B6       $L_Dword$1131
 0001:0000D0BE       $L_Adjustcnt$1130
 0001:0000D0C4       _free
 0001:0000D0FC       loc_1000E0FC
 0001:0000D0FE       __onexit_nolock
 0001:0000D153       loc_1000E153
 0001:0000D168       loc_1000E168
 0001:0000D17E       loc_1000E17E
 0001:0000D190       loc_1000E190
 0001:0000D1AD       loc_1000E1AD
 0001:0000D1AF       loc_1000E1AF
 0001:0000D1B4       ___onexitinit
 0001:0000D1DE       loc_1000E1DE
 0001:0000D1E5       __onexit
 0001:0000D212       $LN8_0
 0001:0000D21B       $LN7
 0001:0000D220       $LN6
 0001:0000D221       _atexit
 0001:0000D238       _malloc
 0001:0000D248       loc_1000E248
 0001:0000D269       loc_1000E269
 0001:0000D271       loc_1000E271
 0001:0000D274       loc_1000E274
 0001:0000D2A1       loc_1000E2A1
 0001:0000D2A8       loc_1000E2A8
 0001:0000D2AF       loc_1000E2AF
 0001:0000D2B5       loc_1000E2B5
 0001:0000D2C9       loc_1000E2C9
 0001:0000D2CC       sub_1000E2CC
 0001:0000D2DB       __callnewh
 0001:0000D2FF       loc_1000E2FF
 0001:0000D303       __malloc_crt
 0001:0000D30C       $Retry$26587
 0001:0000D33B       loc_1000E33B
 0001:0000D342       loc_1000E342
 0001:0000D348       __calloc_crt
 0001:0000D351       $Retry$26602
 0001:0000D387       loc_1000E387
 0001:0000D38E       loc_1000E38E
 0001:0000D394       __realloc_crt
 0001:0000D39D       $Retry$26614
 0001:0000D3D5       loc_1000E3D5
 0001:0000D3DC       loc_1000E3DC
 0001:0000D3E2       ___crtCorExitProcess
 0001:0000D40B       loc_1000E40B
 0001:0000D40D       ___crtExitProcess
 0001:0000D424       $LN3
 0001:0000D425       __lockexit
 0001:0000D42E       __unlockexit
 0001:0000D437       __init_pointers
 0001:0000D46A       __initterm_e
 0001:0000D477       loc_1000E477
 0001:0000D483       loc_1000E483
 0001:0000D486       loc_1000E486
 0001:0000D48B       loc_1000E48B
 0001:0000D48E       __cinit
 0001:0000D4B5       loc_1000E4B5
 0001:0000D4EC       loc_1000E4EC
 0001:0000D4F4       loc_1000E4F4
 0001:0000D4FB       loc_1000E4FB
 0001:0000D521       loc_1000E521
 0001:0000D523       loc_1000E523
 0001:0000D525       _doexit
 0001:0000D58D       loc_1000E58D
 0001:0000D5CF       loc_1000E5CF
 0001:0000D5DD       loc_1000E5DD
 0001:0000D5E2       loc_1000E5E2
 0001:0000D5E9       loc_1000E5E9
 0001:0000D5FD       loc_1000E5FD
 0001:0000D603       loc_1000E603
 0001:0000D60A       loc_1000E60A
 0001:0000D61E       loc_1000E61E
 0001:0000D624       loc_1000E624
 0001:0000D630       $LN20_0
 0001:0000D650       $LN19_0
 0001:0000D65E       $LN18_1
 0001:0000D65F       loc_1000E65F
 0001:0000D665       $LN49
 0001:0000D67B       __cexit
 0001:0000D68A       __amsg_exit
 0001:0000D6A7       $LN3_0
 0001:0000D6A8       __ioinit
 0001:0000D6D6       loc_1000E6D6
 0001:0000D6EE       loc_1000E6EE
 0001:0000D721       loc_1000E721
 0001:0000D750       loc_1000E750
 0001:0000D75D       loc_1000E75D
 0001:0000D782       loc_1000E782
 0001:0000D7B0       loc_1000E7B0
 0001:0000D7BD       loc_1000E7BD
 0001:0000D7C3       loc_1000E7C3
 0001:0000D7C9       loc_1000E7C9
 0001:0000D7F2       loc_1000E7F2
 0001:0000D82F       loc_1000E82F
 0001:0000D83B       loc_1000E83B
 0001:0000D83D       loc_1000E83D
 0001:0000D85A       loc_1000E85A
 0001:0000D867       loc_1000E867
 0001:0000D871       loc_1000E871
 0001:0000D8A0       loc_1000E8A0
 0001:0000D8A9       loc_1000E8A9
 0001:0000D8C1       loc_1000E8C1
 0001:0000D8CB       loc_1000E8CB
 0001:0000D8E3       loc_1000E8E3
 0001:0000D8E5       loc_1000E8E5
 0001:0000D8E8       loc_1000E8E8
 0001:0000D8ED       __ioterm
 0001:0000D8F6       loc_1000E8F6
 0001:0000D909       loc_1000E909
 0001:0000D916       loc_1000E916
 0001:0000D927       loc_1000E927
 0001:0000D932       loc_1000E932
 0001:0000D940       __setenvp
 0001:0000D94E       loc_1000E94E
 0001:0000D95C       loc_1000E95C
 0001:0000D964       loc_1000E964
 0001:0000D969       loc_1000E969
 0001:0000D974       loc_1000E974
 0001:0000D99A       loc_1000E99A
 0001:0000D9CB       loc_1000E9CB
 0001:0000D9CD       loc_1000E9CD
 0001:0000D9F3       loc_1000E9F3
 0001:0000D9F5       loc_1000E9F5
 0001:0000D9F8       loc_1000E9F8
 0001:0000DA0F       loc_1000EA0F
 0001:0000DA1B       $LN24_0
 0001:0000DA1C       _parse_cmdline
 0001:0000DA44       loc_1000EA44
 0001:0000DA47       loc_1000EA47
 0001:0000DA5C       loc_1000EA5C
 0001:0000DA6A       loc_1000EA6A
 0001:0000DA8D       loc_1000EA8D
 0001:0000DA8E       loc_1000EA8E
 0001:0000DA98       loc_1000EA98
 0001:0000DAA8       loc_1000EAA8
 0001:0000DAB0       loc_1000EAB0
 0001:0000DAB4       loc_1000EAB4
 0001:0000DABD       loc_1000EABD
 0001:0000DAC7       loc_1000EAC7
 0001:0000DACA       loc_1000EACA
 0001:0000DACD       loc_1000EACD
 0001:0000DAE5       loc_1000EAE5
 0001:0000DAE7       loc_1000EAE7
 0001:0000DAEE       loc_1000EAEE
 0001:0000DAF0       loc_1000EAF0
 0001:0000DB11       loc_1000EB11
 0001:0000DB1E       loc_1000EB1E
 0001:0000DB20       loc_1000EB20
 0001:0000DB24       loc_1000EB24
 0001:0000DB2D       loc_1000EB2D
 0001:0000DB36       loc_1000EB36
 0001:0000DB4A       loc_1000EB4A
 0001:0000DB6D       loc_1000EB6D
 0001:0000DB79       loc_1000EB79
 0001:0000DB86       loc_1000EB86
 0001:0000DB8B       loc_1000EB8B
 0001:0000DB91       loc_1000EB91
 0001:0000DB9C       loc_1000EB9C
 0001:0000DBA6       loc_1000EBA6
 0001:0000DBB2       loc_1000EBB2
 0001:0000DBB6       __setargv
 0001:0000DBD0       loc_1000EBD0
 0001:0000DBFE       loc_1000EBFE
 0001:0000DC01       loc_1000EC01
 0001:0000DC69       loc_1000EC69
 0001:0000DC6C       loc_1000EC6C
 0001:0000DC71       ___crtGetEnvironmentStringsA
 0001:0000DC8D       loc_1000EC8D
 0001:0000DC92       loc_1000EC92
 0001:0000DCA2       loc_1000ECA2
 0001:0000DCEE       loc_1000ECEE
 0001:0000DCFA       loc_1000ECFA
 0001:0000DD03       loc_1000ED03
 0001:0000DD04       loc_1000ED04
 0001:0000DD08       sub_1000ED08
 0001:0000DD1C       loc_1000ED1C
 0001:0000DD24       loc_1000ED24
 0001:0000DD2B       loc_1000ED2B
 0001:0000DD2E       sub_1000ED2E
 0001:0000DD42       loc_1000ED42
 0001:0000DD4A       loc_1000ED4A
 0001:0000DD51       loc_1000ED51
 0001:0000DD54       __heap_init
 0001:0000DD72       sub_1000ED72
 0001:0000DD90       __SEH_prolog4
 0001:0000DDD5       __SEH_epilog4
 0001:0000DDF0       __except_handler4
 0001:0000DE29       loc_1000EE29
 0001:0000DE60       loc_1000EE60
 0001:0000DE8B       loc_1000EE8B
 0001:0000DE98       loc_1000EE98
 0001:0000DEAC       loc_1000EEAC
 0001:0000DEBC       loc_1000EEBC
 0001:0000DEC6       loc_1000EEC6
 0001:0000DECF       loc_1000EECF
 0001:0000DF03       loc_1000EF03
 0001:0000DF28       loc_1000EF28
 0001:0000DF42       loc_1000EF42
 0001:0000DF5F       $LN33
 0001:0000DF7F       $LN32
 0001:0000DF9D       loc_1000EF9D
 0001:0000DFAE       loc_1000EFAE
 0001:0000DFBC       loc_1000EFBC
 0001:0000DFBE       loc_1000EFBE
 0001:0000DFC9       loc_1000EFC9
 0001:0000DFD0       loc_1000EFD0
 0001:0000DFE1       loc_1000EFE1
 0001:0000E003       loc_1000F003
 0001:0000E02B       loc_1000F02B
 0001:0000E03B       loc_1000F03B
 0001:0000E04B       loc_1000F04B
 0001:0000E05B       loc_1000F05B
 0001:0000E06B       loc_1000F06B
 0001:0000E07B       loc_1000F07B
 0001:0000E08B       loc_1000F08B
 0001:0000E09B       loc_1000F09B
 0001:0000E0A9       loc_1000F0A9
 0001:0000E0B6       loc_1000F0B6
 0001:0000E0BD       loc_1000F0BD
 0001:0000E0C2       loc_1000F0C2
 0001:0000E0C5       loc_1000F0C5
 0001:0000E0C6       loc_1000F0C6
 0001:0000E0C9       ___CppXcptFilter
 0001:0000E0E5       loc_1000F0E5
 0001:0000E0E9       ___security_init_cookie
 0001:0000E11B       loc_1000F11B
 0001:0000E161       loc_1000F161
 0001:0000E171       loc_1000F171
 0001:0000E180       loc_1000F180
 0001:0000E184       _strcpy_s
 0001:0000E199       loc_1000F199
 0001:0000E1A3       loc_1000F1A3
 0001:0000E1AC       loc_1000F1AC
 0001:0000E1B7       loc_1000F1B7
 0001:0000E1BB       loc_1000F1BB
 0001:0000E1C8       loc_1000F1C8
 0001:0000E1DD       loc_1000F1DD
 0001:0000E1DF       loc_1000F1DF
 0001:0000E1E3       sub_1000F1E3
 0001:0000E20F       loc_1000F20F
 0001:0000E227       loc_1000F227
 0001:0000E234       loc_1000F234
 0001:0000E240       loc_1000F240
 0001:0000E246       loc_1000F246
 0001:0000E24A       loc_1000F24A
 0001:0000E260       _strcmp
 0001:0000E270       dodwords
 0001:0000E2A0       doneeq
 0001:0000E2A4       donene
 0001:0000E2AC       dopartial
 0001:0000E2CC       doword
 0001:0000E2E8       __freea
 0001:0000E306       loc_1000F306
 0001:0000E308       __crtLCMapStringA_stat(localeinfo_struct *,ulong,ulong,char const *,int,char *,int,int,int)
 0001:0000E32B       loc_1000F32B
 0001:0000E338       loc_1000F338
 0001:0000E342       loc_1000F342
 0001:0000E345       loc_1000F345
 0001:0000E358       loc_1000F358
 0001:0000E384       loc_1000F384
 0001:0000E38B       loc_1000F38B
 0001:0000E3B7       loc_1000F3B7
 0001:0000E3C8       loc_1000F3C8
 0001:0000E3CB       loc_1000F3CB
 0001:0000E3D0       loc_1000F3D0
 0001:0000E3D3       loc_1000F3D3
 0001:0000E443       loc_1000F443
 0001:0000E474       loc_1000F474
 0001:0000E488       loc_1000F488
 0001:0000E48C       loc_1000F48C
 0001:0000E48E       loc_1000F48E
 0001:0000E4B3       loc_1000F4B3
 0001:0000E4B9       loc_1000F4B9
 0001:0000E4CA       $error_cleanup$27717
 0001:0000E4D1       loc_1000F4D1
 0001:0000E4DD       loc_1000F4DD
 0001:0000E4EF       ___crtLCMapStringA
 0001:0000E533       locret_1000F533
 0001:0000E535       __crtGetStringTypeA_stat(localeinfo_struct *,ulong,char const *,int,ushort *,int,int,int)
 0001:0000E55E       loc_1000F55E
 0001:0000E587       loc_1000F587
 0001:0000E58B       loc_1000F58B
 0001:0000E5B3       loc_1000F5B3
 0001:0000E5C4       loc_1000F5C4
 0001:0000E5C7       loc_1000F5C7
 0001:0000E5C9       loc_1000F5C9
 0001:0000E600       loc_1000F600
 0001:0000E60A       loc_1000F60A
 0001:0000E61C       ___crtGetStringTypeA
 0001:0000E65A       locret_1000F65A
 0001:0000E65C       __mtinitlocks
 0001:0000E667       loc_1000F667
 0001:0000E68E       loc_1000F68E
 0001:0000E697       loc_1000F697
 0001:0000E69A       loc_1000F69A
 0001:0000E6A6       __mtdeletelocks
 0001:0000E6B6       loc_1000F6B6
 0001:0000E6CF       loc_1000F6CF
 0001:0000E6E0       loc_1000F6E0
 0001:0000E6EF       loc_1000F6EF
 0001:0000E6FD       __unlock
 0001:0000E714       __mtinitlocknum
 0001:0000E748       loc_1000F748
 0001:0000E75A       loc_1000F75A
 0001:0000E777       loc_1000F777
 0001:0000E7AD       loc_1000F7AD
 0001:0000E7B1       loc_1000F7B1
 0001:0000E7B8       loc_1000F7B8
 0001:0000E7C4       $LN15_0
 0001:0000E7C7       loc_1000F7C7
 0001:0000E7CD       $LN14_1
 0001:0000E7D5       $LN13_1
 0001:0000E7D6       __lock
 0001:0000E7FE       loc_1000F7FE
 0001:0000E809       ___free_lc_time
 0001:0000EB7D       loc_1000FB7D
 0001:0000EB80       ___free_lconv_num
 0001:0000EB9E       loc_1000FB9E
 0001:0000EBB0       loc_1000FBB0
 0001:0000EBC2       loc_1000FBC2
 0001:0000EBD4       loc_1000FBD4
 0001:0000EBE6       loc_1000FBE6
 0001:0000EBE9       ___free_lconv_mon
 0001:0000EC0C       loc_1000FC0C
 0001:0000EC1E       loc_1000FC1E
 0001:0000EC30       loc_1000FC30
 0001:0000EC42       loc_1000FC42
 0001:0000EC54       loc_1000FC54
 0001:0000EC66       loc_1000FC66
 0001:0000EC78       loc_1000FC78
 0001:0000EC8A       loc_1000FC8A
 0001:0000EC9C       loc_1000FC9C
 0001:0000ECAE       loc_1000FCAE
 0001:0000ECC0       loc_1000FCC0
 0001:0000ECD2       loc_1000FCD2
 0001:0000ECE4       loc_1000FCE4
 0001:0000ECE7       __isleadbyte_l
 0001:0000ED1D       locret_1000FD1D
 0001:0000ED20       _strcspn
 0001:0000ED34       listnext
 0001:0000ED43       listdone
 0001:0000ED4C       dstnext
 0001:0000ED5E       dstdone
 0001:0000ED70       _strpbrk
 0001:0000ED84       listnext_0
 0001:0000ED93       listdone_0
 0001:0000ED98       dstnext_0
 0001:0000EDAA       dstdone_0
 0001:0000EDB0       __msize
 0001:0000EDD0       loc_1000FDD0
 0001:0000EDE3       __GET_RTERRMSG
 0001:0000EDEA       loc_1000FDEA
 0001:0000EE00       loc_1000FE00
 0001:0000EE09       __NMSG_WRITE
 0001:0000EE67       loc_1000FE67
 0001:0000EEC7       loc_1000FEC7
 0001:0000EECE       loc_1000FECE
 0001:0000EED3       $LN38
 0001:0000EF0A       loc_1000FF0A
 0001:0000EF4B       loc_1000FF4B
 0001:0000EF55       loc_1000FF55
 0001:0000EF6A       loc_1000FF6A
 0001:0000EF82       loc_1000FF82
 0001:0000EFA9       loc_1000FFA9
 0001:0000EFB8       $LN35
 0001:0000EFDA       loc_1000FFDA
 0001:0000EFF0       locret_1000FFF0
 0001:0000EFF1       __calloc_impl
 0001:0000F018       loc_10010018
 0001:0000F024       loc_10010024
 0001:0000F03E       loc_1001003E
 0001:0000F05F       loc_1001005F
 0001:0000F063       loc_10010063
 0001:0000F070       loc_10010070
 0001:0000F073       _realloc
 0001:0000F089       loc_10010089
 0001:0000F09E       loc_1001009E
 0001:0000F0A1       loc_100100A1
 0001:0000F0A6       loc_100100A6
 0001:0000F0D1       loc_100100D1
 0001:0000F0E8       loc_100100E8
 0001:0000F0EA       loc_100100EA
 0001:0000F0EB       loc_100100EB
 0001:0000F0EE       loc_100100EE
 0001:0000F106       loc_10010106
 0001:0000F11C       loc_1001011C
 0001:0000F120       terminate(void)
 0001:0000F140       $LN12_2
 0001:0000F143       $LN10_1
 0001:0000F144       $LN7_0
 0001:0000F147       loc_10010147
 0001:0000F14E       loc_1001014E
 0001:0000F159       __initp_eh_hooks
 0001:0000F16A       __initp_misc_winsig
 0001:0000F188       _siglookup
 0001:0000F197       loc_10010197
 0001:0000F1AB       loc_100101AB
 0001:0000F1BB       loc_100101BB
 0001:0000F1BD       loc_100101BD
 0001:0000F1BF       sub_100101BF
 0001:0000F1CC       _raise
 0001:0000F1FF       loc_100101FF
 0001:0000F20D       loc_1001020D
 0001:0000F215       loc_10010215
 0001:0000F221       loc_10010221
 0001:0000F233       loc_10010233
 0001:0000F242       loc_10010242
 0001:0000F254       loc_10010254
 0001:0000F260       loc_10010260
 0001:0000F26C       loc_1001026C
 0001:0000F276       loc_10010276
 0001:0000F284       loc_10010284
 0001:0000F287       $decode_done$28713
 0001:0000F29F       $LN51
 0001:0000F2AB       loc_100102AB
 0001:0000F2BF       loc_100102BF
 0001:0000F2DA       loc_100102DA
 0001:0000F2E8       loc_100102E8
 0001:0000F30B       loc_1001030B
 0001:0000F312       loc_10010312
 0001:0000F31E       $LN38_0
 0001:0000F32D       $LN50
 0001:0000F333       $LN37
 0001:0000F341       $LN36
 0001:0000F342       loc_10010342
 0001:0000F346       loc_10010346
 0001:0000F356       loc_10010356
 0001:0000F367       loc_10010367
 0001:0000F369       loc_10010369
 0001:0000F36F       $LN44
 0001:0000F37E       sub_1001037E
 0001:0000F38D       __initp_misc_cfltcvt_tab
 0001:0000F393       loc_10010393
 0001:0000F3B0       __ValidateImageBase
 0001:0000F3C2       loc_100103C2
 0001:0000F3C6       loc_100103C6
 0001:0000F3F0       __FindPESection
 0001:0000F415       loc_10010415
 0001:0000F425       loc_10010425
 0001:0000F42D       loc_1001042D
 0001:0000F42F       loc_1001042F
 0001:0000F440       __IsNonwritableInCurrentImage
 0001:0000F4CB       $LN13_2
 0001:0000F4DD       $LN11_0
 0001:0000F4DE       $LN8_1
 0001:0000F4E1       loc_100104E1
 0001:0000F4FC       x_ismbbtype_l(localeinfo_struct *,uint,int,int)
 0001:0000F537       loc_10010537
 0001:0000F539       loc_10010539
 0001:0000F53D       loc_1001053D
 0001:0000F540       loc_10010540
 0001:0000F54D       locret_1001054D
 0001:0000F54F       __ismbblead
 0001:0000F570       __local_unwind4
 0001:0000F5A2       _lu_top
 0001:0000F5C4       loc_100105C4
 0001:0000F5F2       _lu_done
 0001:0000F600       __unwind_handler4
 0001:0000F645       locret_10010645
 0001:0000F646       _seh_longjmp_unwind4(x)
 0001:0000F662       _EH4_CallFilterFunc(x,x)
 0001:0000F679       _EH4_TransferToHandler(x,x)
 0001:0000F692       _EH4_GlobalUnwind2(x,x)
 0001:0000F6A6       ReturnPoint
 0001:0000F6AB       _EH4_LocalUnwind(x,x,x,x)
 0001:0000F6D0       __alloca_probe_16
 0001:0000F6E6       __alloca_probe_8
 0001:0000F6FC       sub_100106FC
 0001:0000F7AF       loc_100107AF
 0001:0000F7FF       loc_100107FF
 0001:0000F808       loc_10010808
 0001:0000F83B       loc_1001083B
 0001:0000F857       loc_10010857
 0001:0000F859       loc_10010859
 0001:0000F868       _wcscat_s
 0001:0000F87D       loc_1001087D
 0001:0000F887       loc_10010887
 0001:0000F88E       loc_1001088E
 0001:0000F892       loc_10010892
 0001:0000F899       loc_10010899
 0001:0000F8A0       loc_100108A0
 0001:0000F8A2       loc_100108A2
 0001:0000F8AE       loc_100108AE
 0001:0000F8B4       loc_100108B4
 0001:0000F8C6       loc_100108C6
 0001:0000F8DD       _wcsncpy_s
 0001:0000F8F8       loc_100108F8
 0001:0000F8FA       loc_100108FA
 0001:0000F8FF       loc_100108FF
 0001:0000F903       loc_10010903
 0001:0000F90A       loc_1001090A
 0001:0000F914       loc_10010914
 0001:0000F91D       loc_1001091D
 0001:0000F928       loc_10010928
 0001:0000F936       loc_10010936
 0001:0000F941       loc_10010941
 0001:0000F955       loc_10010955
 0001:0000F959       loc_10010959
 0001:0000F96E       loc_1001096E
 0001:0000F977       loc_10010977
 0001:0000F996       loc_10010996
 0001:0000F9AA       _wcscpy_s
 0001:0000F9BF       loc_100109BF
 0001:0000F9C9       loc_100109C9
 0001:0000F9D0       loc_100109D0
 0001:0000F9D4       loc_100109D4
 0001:0000F9E0       loc_100109E0
 0001:0000F9E4       loc_100109E4
 0001:0000F9F6       loc_100109F6
 0001:0000FA0D       __set_error_mode
 0001:0000FA2A       loc_10010A2A
 0001:0000FA37       loc_10010A37
 0001:0000FA4C       _abort
 0001:0000FA5D       loc_10010A5D
 0001:0000FA77       loc_10010A77
 0001:0000FA7E       $LN5_0
 0001:0000FA7F       loc_10010A7F
 0001:0000FA90       __global_unwind2
 0001:0000FAA8       _gu_return
 0001:0000FAB0       __unwind_handler
 0001:0000FAF4       _uh_return
 0001:0000FAF5       __local_unwind2
 0001:0000FB1E       _lu_top_0
 0001:0000FB3A       _continue_
 0001:0000FB65       _lu_continue
 0001:0000FB67       _lu_done_0
 0001:0000FB79       __abnormal_termination
 0001:0000FB9B       _at_done
 0001:0000FB9C       __NLG_Notify1
 0001:0000FBA5       __NLG_Notify
 0001:0000FBB0       __NLG_Go
 0001:0000FBBC       __NLG_Dispatch2
 0001:0000FBC4       __NLG_Call
 0001:0000FBC6       __NLG_Return2
 0001:0000FBD0       __aulldvrm
 0001:0000FC01       loc_10010C01
 0001:0000FC0F       loc_10010C0F
 0001:0000FC3D       loc_10010C3D
 0001:0000FC46       loc_10010C46
 0001:0000FC48       loc_10010C48
 0001:0000FC70       __alloca_probe
 0001:0000FC84       cs10
 0001:0000FC92       cs20
 0001:0000FCA0       ___ascii_strnicmp
 0001:0000FCBC       lupe
 0001:0000FCD8       skip1
 0001:0000FCE2       skip2
 0001:0000FCEB       eject
 0001:0000FCF1       differ
 0001:0000FCFA       toend_0
 0001:0000FD10       __allmul
 0001:0000FD29       loc_10010D29
 0001:0000FD44       RtlUnwind
 0001:0000FD50       __aulldiv
 0001:0000FD72       loc_10010D72
 0001:0000FD80       loc_10010D80
 0001:0000FDAE       loc_10010DAE
 0001:0000FDAF       loc_10010DAF
 0001:0000FDB3       loc_10010DB3
 0001:0000FDB8       sub_10010DB8
 0001:0000FDD0       dword_10010DD0
 0001:0000FDEC       unk_10010DEC
 0001:0000FE08       dword_10010E08
 0001:0000FE18       dword_10010E18
 0001:0000FE28       dword_10010E28
 0001:0000FE44       dword_10010E44
 0001:0000FE54       dword_10010E54
 0001:0000FE64       dword_10010E64
 0001:0000FE80       dword_10010E80
 0001:0000FE90       dword_10010E90
 0001:0000FE9C       dword_10010E9C
 0001:0000FEB8       stru_10010EB8
 0001:0000FED8       stru_10010ED8
 0001:0000FEF8       stru_10010EF8
 0001:0000FF18       stru_10010F18
 0001:0000FF38       stru_10010F38
 0001:0000FF58       stru_10010F58
 0001:0000FF80       stru_10010F80
 0001:0000FFA8       stru_10010FA8
 0001:0000FFC8       stru_10010FC8
 0001:0000FFE8       stru_10010FE8
 0001:00010008       stru_10011008
 0001:00010028       stru_10011028
 0001:00010048       stru_10011048
 0001:00010068       dword_10011068
 0001:00010088       dword_10011088
 0001:000100C0       dword_100110C0
 0001:000100C4       Ptr
 0001:000100C8       dword_100110C8
 0001:000100D4       dword_100110D4
 0001:000100D8       dword_100110D8
 0001:000100DC       dword_100110DC
 0001:000100E4       dword_100110E4
 0001:000100E8       dword_100110E8
 0001:000100F0       dword_100110F0
 0001:000100F4       dword_100110F4
 0001:000100FC       dword_100110FC
 0001:00010140       dword_10011140
 0001:00010148       dword_10011148
 0001:000101D4       word_100111D4
 0001:000101D8       word_100111D8
 0001:000101DC       word_100111DC
 0001:000101E0       word_100111E0
 0001:000101E4       dword_100111E4
 0001:000101E8       dword_100111E8
 0001:000101EC       dword_100111EC
 0001:000101F0       dword_100111F0
 0001:000101F4       dword_100111F4
 0001:000101F8       dword_100111F8
 0001:000101FC       dword_100111FC
 0001:00010200       dword_10011200
 0001:00010204       word_10011204
 0001:00010208       dword_10011208
 0001:0001020C       dword_1001120C
 0001:00010210       word_10011210
 0001:00010414       dword_10011414
 0001:00010418       word_10011418
 0001:00010424       dword_10011424
 0001:00010428       dword_10011428
 0001:0001042C       dword_1001142C
 0001:00010430       dword_10011430
 0001:00010434       dword_10011434
 0001:00010438       dword_10011438
 0001:0001043C       dword_1001143C
 0001:00010440       dword_10011440
 0001:00010444       dword_10011444
 0001:00010448       dword_10011448
 0001:00010450       dword_10011450
 0001:00010454       dword_10011454
 0001:0001045C       dword_1001145C
 0001:0001046C       dword_1001146C
 0001:00010474       byte_10011474
 0001:00010478       dword_10011478
 0001:0001047C       dword_1001147C
 0001:00010480       Filename
 0001:00010584       byte_10011584
 0001:00010588       hHeap
 0001:0001058C       dword_1001158C
 0001:00010590       dword_10011590
 0001:00010598       dword_10011598
 0001:000106AC       word_100116AC
 0001:000106E8       dword_100116E8
 0001:000106EC       dword_100116EC
 0001:000106F0       Dst
 0001:00010722       word_10011722
 0001:0001092A       word_1001192A
 0001:00010D18       dword_10011D18
 0001:00010D1C       dword_10011D1C
 0001:00010D20       dword_10011D20
 0001:00010D24       dword_10011D24
 0001:00010D28       dword_10011D28
 0001:00010D2C       dword_10011D2C
 0001:00010D34       dword_10011D34
 0001:00010D38       dword_10011D38
 0001:00010D78       dword_10011D78
 0001:00010D7C       dword_10011D7C
 0001:00010D80       dword_10011D80
 0001:00010D84       dword_10011D84
 0001:00010D88       dword_10011D88
 0001:00010DB0       dword_10011DB0
 0001:00010DB4       dword_10011DB4
 0001:00010DB8       dword_10011DB8
 0001:00010DBC       dword_10011DBC
 0001:00010DC0       dword_10011DC0
 0001:00010DC4       dword_10011DC4
 0001:00010DC8       dword_10011DC8
 0001:00010DCC       dword_10011DCC
 0001:00010DD0       dword_10011DD0
 0001:00010DD4       dword_10011DD4
 0001:00010E00       dword_10011E00
 0001:00010E04       dword_10011E04
 0001:00010E08       uNumber
 0001:00010E20       dword_10011E20
 0001:00010E24       dword_10011E24
 0001:00010F20       dword_10011F20
 0001:00010F24       dword_10011F24
 0001:00010F28       dword_10011F28
 0001:00010F2C       dword_10011F2C
 0001:00010F30       dword_10011F30
 0001:00010F34       dword_10011F34
 0001:00010F38       dword_10011F38
 0001:00010F3C       dword_10011F3C
 0001:00010F40       dword_10011F40
 0001:00010F44       __IMPORT_DESCRIPTOR_SHLWAPI
 0001:00010F58       __IMPORT_DESCRIPTOR_WS2_32
 0001:00010F6C       __IMPORT_DESCRIPTOR_KERNEL32
 0001:00010F80       __IMPORT_DESCRIPTOR_ADVAPI32
 0001:00010F94       __IMPORT_DESCRIPTOR_SHELL32
 0001:00010FBC       off_10011FBC
 0001:00010FD4       off_10011FD4
 0001:000110EC       off_100120EC
 0001:000110F4       off_100120F4
 0001:00011104       dword_10012104
 0001:00011124       word_10012124
 0001:0001113A       word_1001213A
 0001:0001114E       word_1001214E
 0001:0001115C       aShlwapi_dll
 0001:00011168       aWs2_32_dll
 0001:00011174       word_10012174
 0001:00011184       word_10012184
 0001:0001119A       word_1001219A
 0001:000111A6       word_100121A6
 0001:000111B4       word_100121B4
 0001:000111CA       word_100121CA
 0001:000111D2       word_100121D2
 0001:000111E2       word_100121E2
 0001:000111F8       word_100121F8
 0001:00011204       word_10012204
 0001:00011214       word_10012214
 0001:00011224       word_10012224
 0001:00011236       word_10012236
 0001:00011246       word_10012246
 0001:00011262       word_10012262
 0001:00011276       word_10012276
 0001:00011286       word_10012286
 0001:00011294       word_10012294
 0001:000112A0       word_100122A0
 0001:000112B0       aKernel32_dll
 0001:000112BE       word_100122BE
 0001:000112DE       word_100122DE
 0001:000112F2       word_100122F2
 0001:00011306       word_10012306
 0001:00011316       word_10012316
 0001:00011324       aAdvapi32_dll
 0001:00011332       word_10012332
 0001:00011348       aShell32_dll
 0001:00011354       word_10012354
 0001:00011370       word_10012370
 0001:0001138E       word_1001238E
 0001:000113A2       word_100123A2
 0001:000113B2       word_100123B2
 0001:000113C2       word_100123C2
 0001:000113D6       word_100123D6
 0001:000113EA       word_100123EA
 0001:00011400       word_10012400
 0001:00011412       word_10012412
 0001:00011424       word_10012424
 0001:00011440       word_10012440
 0001:0001144C       word_1001244C
 0001:00011464       word_10012464
 0001:0001147C       word_1001247C
 0001:00011486       word_10012486
 0001:00011492       word_10012492
 0001:000114A4       word_100124A4
 0001:000114B0       word_100124B0
 0001:000114BE       word_100124BE
 0001:000114CC       word_100124CC
 0001:000114D6       word_100124D6
 0001:000114EA       word_100124EA
 0001:000114F6       word_100124F6
 0001:00011502       word_10012502
 0001:00011510       word_10012510
 0001:00011522       word_10012522
 0001:00011532       word_10012532
 0001:0001155A       word_1001255A
 0001:00011568       word_10012568
 0001:0001157A       word_1001257A
 0001:00011592       word_10012592
 0001:000115A8       word_100125A8
 0001:000115C2       word_100125C2
 0001:000115DC       word_100125DC
 0001:000115EA       word_100125EA
 0001:000115F8       word_100125F8
 0001:00011612       word_10012612
 0001:00011622       word_10012622
 0001:00011638       word_10012638
 0001:00011652       word_10012652
 0001:00011662       word_10012662
 0001:00011674       word_10012674
 0001:0001168C       word_1001268C
 0001:000116A4       word_100126A4
 0001:000116B0       word_100126B0
 0001:000116BC       word_100126BC
 0001:000116D2       word_100126D2
 0001:000116E0       word_100126E0
 0001:000116F0       word_100126F0
 0001:00011728       off_10012728
 0001:0001172C       off_1001272C
 0001:00011730       word_10012730
 0001:00011732       aDll_dll
 0001:0001173A       aSvcmain

Program entry point at 0001:0000BB2A
